C51 COMPILER V9.56.0.0   MONITOR_MCU                                                       07/18/2018 10:44:45 PAGE 1   


C51 COMPILER V9.56.0.0, COMPILATION OF MODULE MONITOR_MCU
OBJECT MODULE PLACED IN .\Output\Monitor_MCU.obj
COMPILER INVOKED BY: C:\Keil_v5\C51\BIN\C51.EXE source36\Monitor_MCU.c LARGE OMF2 ROM(D512K) OPTIMIZE(9,SPEED) REGFILE(.
                    -\Output\TW8836B_EVB11.ORC) BROWSE INCDIR(SiI-SW;SiI-SW\HAL;SiI-SW\DEBUG;SiI-SW\CEC;.\Source36\LIB) DEFINE(EVB_11,nullFn=
                    -//) DEBUG CODE PRINT(.\List\Monitor_MCU.lst) TABS(2) OBJECT(.\Output\Monitor_MCU.obj)

line level    source

   1          /**
   2           * @file
   3           * Monitor_MCU.c 
   4           * @author Harry Han
   5           * @author YoungHwan Bae
   6           * @author Brian Kang
   7           * @version 1.0
   8           * @section LICENSE
   9           *  Copyright (C) 2011~2012 Intersil Corporation
  10           * @section DESCRIPTION
  11           *  Interface between TW_Terminal2 and Firmware.
  12          */
  13          /*
  14          Disclaimer: THIS INFORMATION IS PROVIDED 'AS-IS' FOR EVALUATION PURPOSES ONLY.  
  15          INTERSIL CORPORATION AND ITS SUBSIDIARIES ('INTERSIL') DISCLAIM ALL WARRANTIES, 
  16          INCLUDING WITHOUT LIMITATION FITNESS FOR A PARTICULAR PURPOSE AND MERCHANTABILITY.  
  17          Intersil provides evaluation platforms to help our customers to develop products. 
  18          However, factors beyond Intersil's control could significantly affect Intersil 
  19          product performance. 
  20          It remains the customers' responsibility to verify the actual system performance.
  21          */
  22          //*****************************************************************************
  23          //
  24          //                Monitor_CPU.c
  25          //
  26          //*****************************************************************************
  27          //
  28          //
  29          #include "Config.h"
  30          #include "reg.h"
  31          #include "typedefs.h"
  32          #include "TW8836.h"
  33          
  34          #include "Global.h"
  35          #include "CPU.h"
  36          #include "printf.h"
  37          #include "util.h"
  38          #include "Spi.h"
  39          
  40          #include "reg_debug.h"
  41          #include "monitor_mcu.h"
  42          
  43          typedef struct SFR_map_s {
  44            BYTE idx;
  45            char name[6];
  46          } SFR_map_t;
  47          //format  XX:nnnnn:dd XX:nnnnn. So each item uses 12 chars.
  48            //TW8836 DP80390
  49          code struct SFR_map_s SFR_map[] = {
  50            {0x80,"P0"},  {0x81,"SP"},  {0x82,"DPL0"},  {0x83,"DPH0"},  {0x84,"DPL1"},  {0x85,"DPH1"},  {0x86,"DPS"}, {0x87
             -,"PCON"},
  51            {0x88,"TCON"},  {0x89,"TMOD"},  {0x8A,"TL0"}, {0x8B,"TL1"}, {0x8C,"TH0"}, {0x8D,"TH1"}, {0x8E,"CKCON"},
  52          
C51 COMPILER V9.56.0.0   MONITOR_MCU                                                       07/18/2018 10:44:45 PAGE 2   

  53            {0x90,"P1"},  {0x91,"EXIF"},  {0x92,"_WTST"}, {0x93,"_DPX0"},         {0x95,"_DPX1"},
  54            {0x98,"SCON0"}, {0x99,"SBUF0"}, {0x9A,"BANK"},                {0x9C,"CACHE"}, {0x9D,"ACON"},  {0x9E,"FIFO0"
             -},  {0x9F,"FIFO1"}, 
  55          
  56            {0xA0,"P2"},
  57            {0xA8,"IE"},
  58          
  59            {0xB0,"P3"},
  60            {0xB8,"IP"},
  61          
  62            {0xC0,"SCON1"}, {0xC1,"SBUF1"}, {0xC2,"CCL1"},  {0xC3,"CCH1"},  {0xC4,"CCL2"},  {0xC5,"CCH2"},  {0xC6,"CCL3"}
             -,  {0xC7,"CCH3"},
  63            {0xC8,"T2CON"}, {0xC9,"T2IF"},  {0xCA,"RLDL"},  {0xCB,"RLDH"},  {0xCC,"TL2"}, {0xCD,"TH2"}, {0xCE,"CCEN"},
  64          
  65            {0xD0,"PSW"},
  66            {0xD8,"WDCON"},
  67          
  68            {0xE0,"ACC"},         {0xE2,"CAMC"},
  69            {0xE8,"EIE"}, {0xE9,"STAT"},  {0xEA,"_MXAX"},{0xEB,"TA"},
  70          
  71            {0xF0,"B"},
  72            {0xF8,"EIP"},         {0xFA,"E2IF"},  {0xFB,"E2IE"},  {0xFC,"E2IP"},  {0xFD,"E2IM"},  {0xFE,"E2IT"},   {0,0}
  73          };
  74          
  75          //=============================================================================
  76          BYTE WriteSFR(BYTE addr, BYTE dat)
  77          {
  78   1        switch (addr) {
  79   2          case 0x80:  SFR_80h = dat;  if( echo ) return SFR_80h; else return 0;
  80   2          case 0x81:  SFR_81h = dat;  if( echo ) return SFR_81h; else return 0;
  81   2          case 0x82:  SFR_82h = dat;  if( echo ) return SFR_82h; else return 0;
  82   2          case 0x83:  SFR_83h = dat;  if( echo ) return SFR_83h; else return 0;
  83   2          case 0x84:  SFR_84h = dat;  if( echo ) return SFR_84h; else return 0;
  84   2          case 0x85:  SFR_85h = dat;  if( echo ) return SFR_85h; else return 0;
  85   2          case 0x86:  SFR_86h = dat;  if( echo ) return SFR_86h; else return 0;
  86   2          case 0x87:  SFR_87h = dat;  if( echo ) return SFR_87h; else return 0;
  87   2          case 0x88:  SFR_88h = dat;  if( echo ) return SFR_88h; else return 0;
  88   2          case 0x89:  SFR_89h = dat;  if( echo ) return SFR_89h; else return 0;
  89   2          case 0x8a:  SFR_8ah = dat;  if( echo ) return SFR_8ah; else return 0;
  90   2          case 0x8b:  SFR_8bh = dat;  if( echo ) return SFR_8bh; else return 0;
  91   2          case 0x8c:  SFR_8ch = dat;  if( echo ) return SFR_8ch; else return 0;
  92   2          case 0x8d:  SFR_8dh = dat;  if( echo ) return SFR_8dh; else return 0;
  93   2          case 0x8e:  SFR_8eh = dat;  if( echo ) return SFR_8eh; else return 0;
  94   2          case 0x8f:  SFR_8fh = dat;  if( echo ) return SFR_8fh; else return 0;
  95   2      
  96   2          case 0x90:  SFR_90h = dat;  if( echo ) return SFR_90h; else return 0;
  97   2          case 0x91:  SFR_91h = dat;  if( echo ) return SFR_91h; else return 0;
  98   2          case 0x92:  SFR_92h = dat;  if( echo ) return SFR_92h; else return 0;
  99   2          case 0x93:  SFR_93h = dat;  if( echo ) return SFR_93h; else return 0;
 100   2          case 0x94:  SFR_94h = dat;  if( echo ) return SFR_94h; else return 0;
 101   2          case 0x95:  SFR_95h = dat;  if( echo ) return SFR_95h; else return 0;
 102   2          case 0x96:  SFR_96h = dat;  if( echo ) return SFR_96h; else return 0;
 103   2          case 0x97:  SFR_97h = dat;  if( echo ) return SFR_97h; else return 0;
 104   2          case 0x98:  SFR_98h = dat;  if( echo ) return SFR_98h; else return 0;
 105   2          case 0x99:  SFR_99h = dat;  if( echo ) return SFR_99h; else return 0;
 106   2          case 0x9a:  SFR_9ah = dat;  if( echo ) return SFR_9ah; else return 0;
 107   2          case 0x9b:  SFR_9bh = dat;  if( echo ) return SFR_9bh; else return 0;
 108   2          case 0x9c:  SFR_9ch = dat;  if( echo ) return SFR_9ch; else return 0;
 109   2          case 0x9d:  SFR_9dh = dat;  if( echo ) return SFR_9dh; else return 0;
 110   2          case 0x9e:  SFR_9eh = dat;  if( echo ) return SFR_9eh; else return 0;
 111   2          case 0x9f:  SFR_9fh = dat;  if( echo ) return SFR_9fh; else return 0;
 112   2                                                        
C51 COMPILER V9.56.0.0   MONITOR_MCU                                                       07/18/2018 10:44:45 PAGE 3   

 113   2          case 0xa0:  SFR_a0h = dat;  if( echo ) return SFR_a0h; else return 0;
 114   2          case 0xa1:  SFR_a1h = dat;  if( echo ) return SFR_a1h; else return 0;
 115   2          case 0xa2:  SFR_a2h = dat;  if( echo ) return SFR_a2h; else return 0;
 116   2          case 0xa3:  SFR_a3h = dat;  if( echo ) return SFR_a3h; else return 0;
 117   2          case 0xa4:  SFR_a4h = dat;  if( echo ) return SFR_a4h; else return 0;
 118   2          case 0xa5:  SFR_a5h = dat;  if( echo ) return SFR_a5h; else return 0;
 119   2          case 0xa6:  SFR_a6h = dat;  if( echo ) return SFR_a6h; else return 0;
 120   2          case 0xa7:  SFR_a7h = dat;  if( echo ) return SFR_a7h; else return 0;
 121   2          case 0xa8:  SFR_a8h = dat;  if( echo ) return SFR_a8h; else return 0;
 122   2          case 0xa9:  SFR_a9h = dat;  if( echo ) return SFR_a9h; else return 0;
 123   2          case 0xaa:  SFR_aah = dat;  if( echo ) return SFR_aah; else return 0;
 124   2          case 0xab:  SFR_abh = dat;  if( echo ) return SFR_abh; else return 0;
 125   2          case 0xac:  SFR_ach = dat;  if( echo ) return SFR_ach; else return 0;
 126   2          case 0xad:  SFR_adh = dat;  if( echo ) return SFR_adh; else return 0;
 127   2          case 0xae:  SFR_aeh = dat;  if( echo ) return SFR_aeh; else return 0;
 128   2          case 0xaf:  SFR_afh = dat;  if( echo ) return SFR_afh; else return 0;
 129   2                                                        
 130   2          case 0xb0:  SFR_b0h = dat;  if( echo ) return SFR_b0h; else return 0;
 131   2          case 0xb1:  SFR_b1h = dat;  if( echo ) return SFR_b1h; else return 0;
 132   2          case 0xb2:  SFR_b2h = dat;  if( echo ) return SFR_b2h; else return 0;
 133   2          case 0xb3:  SFR_b3h = dat;  if( echo ) return SFR_b3h; else return 0;
 134   2          case 0xb4:  SFR_b4h = dat;  if( echo ) return SFR_b4h; else return 0;
 135   2          case 0xb5:  SFR_b5h = dat;  if( echo ) return SFR_b5h; else return 0;
 136   2          case 0xb6:  SFR_b6h = dat;  if( echo ) return SFR_b6h; else return 0;
 137   2          case 0xb7:  SFR_b7h = dat;  if( echo ) return SFR_b7h; else return 0;
 138   2          case 0xb8:  SFR_b8h = dat;  if( echo ) return SFR_b8h; else return 0;
 139   2          case 0xb9:  SFR_b9h = dat;  if( echo ) return SFR_b9h; else return 0;
 140   2          case 0xba:  SFR_bah = dat;  if( echo ) return SFR_bah; else return 0;
 141   2          case 0xbb:  SFR_bbh = dat;  if( echo ) return SFR_bbh; else return 0;
 142   2          case 0xbc:  SFR_bch = dat;  if( echo ) return SFR_bch; else return 0;
 143   2          case 0xbd:  SFR_bdh = dat;  if( echo ) return SFR_bdh; else return 0;
 144   2          case 0xbe:  SFR_beh = dat;  if( echo ) return SFR_beh; else return 0;
 145   2          case 0xbf:  SFR_bfh = dat;  if( echo ) return SFR_bfh; else return 0;
 146   2                                                        
 147   2          case 0xc0:  SFR_c0h = dat;  if( echo ) return SFR_c0h; else return 0;
 148   2          case 0xc1:  SFR_c1h = dat;  if( echo ) return SFR_c1h; else return 0;
 149   2          case 0xc2:  SFR_c2h = dat;  if( echo ) return SFR_c2h; else return 0;
 150   2          case 0xc3:  SFR_c3h = dat;  if( echo ) return SFR_c3h; else return 0;
 151   2          case 0xc4:  SFR_c4h = dat;  if( echo ) return SFR_c4h; else return 0;
 152   2          case 0xc5:  SFR_c5h = dat;  if( echo ) return SFR_c5h; else return 0;
 153   2          case 0xc6:  SFR_c6h = dat;  if( echo ) return SFR_c6h; else return 0;
 154   2          case 0xc7:  SFR_c7h = dat;  if( echo ) return SFR_c7h; else return 0;
 155   2          case 0xc8:  SFR_c8h = dat;  if( echo ) return SFR_c8h; else return 0;
 156   2          case 0xc9:  SFR_c9h = dat;  if( echo ) return SFR_c9h; else return 0;
 157   2          case 0xca:  SFR_cah = dat;  if( echo ) return SFR_cah; else return 0;
 158   2          case 0xcb:  SFR_cbh = dat;  if( echo ) return SFR_cbh; else return 0;
 159   2          case 0xcc:  SFR_cch = dat;  if( echo ) return SFR_cch; else return 0;
 160   2          case 0xcd:  SFR_cdh = dat;  if( echo ) return SFR_cdh; else return 0;
 161   2          case 0xce:  SFR_ceh = dat;  if( echo ) return SFR_ceh; else return 0;
 162   2          case 0xcf:  SFR_cfh = dat;  if( echo ) return SFR_cfh; else return 0;
 163   2                                                        
 164   2          case 0xd0:  SFR_d0h = dat;  if( echo ) return SFR_d0h; else return 0;
 165   2          case 0xd1:  SFR_d1h = dat;  if( echo ) return SFR_d1h; else return 0;
 166   2          case 0xd2:  SFR_d2h = dat;  if( echo ) return SFR_d2h; else return 0;
 167   2          case 0xd3:  SFR_d3h = dat;  if( echo ) return SFR_d3h; else return 0;
 168   2          case 0xd4:  SFR_d4h = dat;  if( echo ) return SFR_d4h; else return 0;
 169   2          case 0xd5:  SFR_d5h = dat;  if( echo ) return SFR_d5h; else return 0;
 170   2          case 0xd6:  SFR_d6h = dat;  if( echo ) return SFR_d6h; else return 0;
 171   2          case 0xd7:  SFR_d7h = dat;  if( echo ) return SFR_d7h; else return 0;
 172   2          case 0xd8:  SFR_ebh = 0xaa;
 173   2                SFR_ebh = 0x55;
 174   2                SFR_d8h = dat;  if( echo ) return SFR_d8h; else return 0;
C51 COMPILER V9.56.0.0   MONITOR_MCU                                                       07/18/2018 10:44:45 PAGE 4   

 175   2          case 0xd9:  SFR_d9h = dat;  if( echo ) return SFR_d9h; else return 0;
 176   2          case 0xda:  SFR_dah = dat;  if( echo ) return SFR_dah; else return 0;
 177   2          case 0xdb:  SFR_dbh = dat;  if( echo ) return SFR_dbh; else return 0;
 178   2          case 0xdc:  SFR_dch = dat;  if( echo ) return SFR_dch; else return 0;
 179   2          case 0xdd:  SFR_ddh = dat;  if( echo ) return SFR_ddh; else return 0;
 180   2          case 0xde:  SFR_deh = dat;  if( echo ) return SFR_deh; else return 0;
 181   2          case 0xdf:  SFR_dfh = dat;  if( echo ) return SFR_dfh; else return 0;
 182   2                                                        
 183   2          case 0xe0:  SFR_e0h = dat;  if( echo ) return SFR_e0h; else return 0;
 184   2          case 0xe1:  SFR_e1h = dat;  if( echo ) return SFR_e1h; else return 0;
 185   2          case 0xe2:  SFR_e2h = dat;  if( echo ) return SFR_e2h; else return 0;
 186   2          case 0xe3:  SFR_e3h = dat;  if( echo ) return SFR_e3h; else return 0;
 187   2          case 0xe4:  SFR_e4h = dat;  if( echo ) return SFR_e4h; else return 0;
 188   2          case 0xe5:  SFR_e5h = dat;  if( echo ) return SFR_e5h; else return 0;
 189   2          case 0xe6:  SFR_e6h = dat;  if( echo ) return SFR_e6h; else return 0;
 190   2          case 0xe7:  SFR_e7h = dat;  if( echo ) return SFR_e7h; else return 0;
 191   2          case 0xe8:  SFR_e8h = dat;  if( echo ) return SFR_e8h; else return 0;
 192   2          case 0xe9:  SFR_e9h = dat;  if( echo ) return SFR_e9h; else return 0;
 193   2          case 0xea:  SFR_eah = dat;  if( echo ) return SFR_eah; else return 0;
 194   2          case 0xeb:  SFR_ebh = dat;  if( echo ) return SFR_ebh; else return 0;
 195   2          case 0xec:  SFR_ech = dat;  if( echo ) return SFR_ech; else return 0;
 196   2          case 0xed:  SFR_edh = dat;  if( echo ) return SFR_edh; else return 0;
 197   2          case 0xee:  SFR_eeh = dat;  if( echo ) return SFR_eeh; else return 0;
 198   2          case 0xef:  SFR_efh = dat;  if( echo ) return SFR_efh; else return 0;
 199   2                                                        
 200   2          case 0xf0:  SFR_f0h = dat;  if( echo ) return SFR_f0h; else return 0;
 201   2          case 0xf1:  SFR_f1h = dat;  if( echo ) return SFR_f1h; else return 0;
 202   2          case 0xf2:  SFR_f2h = dat;  if( echo ) return SFR_f2h; else return 0;
 203   2          case 0xf3:  SFR_f3h = dat;  if( echo ) return SFR_f3h; else return 0;
 204   2          case 0xf4:  SFR_f4h = dat;  if( echo ) return SFR_f4h; else return 0;
 205   2          case 0xf5:  SFR_f5h = dat;  if( echo ) return SFR_f5h; else return 0;
 206   2          case 0xf6:  SFR_f6h = dat;  if( echo ) return SFR_f6h; else return 0;
 207   2          case 0xf7:  SFR_f7h = dat;  if( echo ) return SFR_f7h; else return 0;
 208   2          case 0xf8:  SFR_f8h = dat;  if( echo ) return SFR_f8h; else return 0;
 209   2          case 0xf9:  SFR_f9h = dat;  if( echo ) return SFR_f9h; else return 0;
 210   2          case 0xfa:  SFR_fah = dat;  if( echo ) return SFR_fah; else return 0;
 211   2          case 0xfb:  SFR_fbh = dat;  if( echo ) return SFR_fbh; else return 0;
 212   2          case 0xfc:  SFR_fch = dat;  if( echo ) return SFR_fch; else return 0;
 213   2          case 0xfd:  SFR_fdh = dat;  if( echo ) return SFR_fdh; else return 0;
 214   2          case 0xfe:  SFR_feh = dat;  if( echo ) return SFR_feh; else return 0;
 215   2          case 0xff:  SFR_ffh = dat;  if( echo ) return SFR_ffh; else return 0;
 216   2        }
 217   1        return 0;
 218   1      }
 219          
 220          //=============================================================================
 221          BYTE ReadSFR(BYTE addr)
 222          {
 223   1        switch (addr) {
 224   2          case 0x80:  return SFR_80h;
 225   2          case 0x81:  return SFR_81h;
 226   2          case 0x82:  return SFR_82h;
 227   2          case 0x83:  return SFR_83h;
 228   2          case 0x84:  return SFR_84h;
 229   2          case 0x85:  return SFR_85h;
 230   2          case 0x86:  return SFR_86h;
 231   2          case 0x87:  return SFR_87h;
 232   2          case 0x88:  return SFR_88h;
 233   2          case 0x89:  return SFR_89h;
 234   2          case 0x8a:  return SFR_8ah;
 235   2          case 0x8b:  return SFR_8bh;
 236   2          case 0x8c:  return SFR_8ch;
C51 COMPILER V9.56.0.0   MONITOR_MCU                                                       07/18/2018 10:44:45 PAGE 5   

 237   2          case 0x8d:  return SFR_8dh;
 238   2          case 0x8e:  return SFR_8eh;
 239   2          case 0x8f:  return SFR_8fh;
 240   2                                        
 241   2          case 0x90:  return SFR_90h;
 242   2          case 0x91:  return SFR_91h;
 243   2          case 0x92:  return SFR_92h;
 244   2          case 0x93:  return SFR_93h;
 245   2          case 0x94:  return SFR_94h;
 246   2          case 0x95:  return SFR_95h;
 247   2          case 0x96:  return SFR_96h;
 248   2          case 0x97:  return SFR_97h;
 249   2          case 0x98:  return SFR_98h;
 250   2          case 0x99:  return SFR_99h;
 251   2          case 0x9a:  return SFR_9ah;
 252   2          case 0x9b:  return SFR_9bh;
 253   2          case 0x9c:  return SFR_9ch;
 254   2          case 0x9d:  return SFR_9dh;
 255   2          case 0x9e:  return SFR_9eh;
 256   2          case 0x9f:  return SFR_9fh;
 257   2                                        
 258   2          case 0xa0:  return SFR_a0h;
 259   2          case 0xa1:  return SFR_a1h;
 260   2          case 0xa2:  return SFR_a2h;
 261   2          case 0xa3:  return SFR_a3h;
 262   2          case 0xa4:  return SFR_a4h;
 263   2          case 0xa5:  return SFR_a5h;
 264   2          case 0xa6:  return SFR_a6h;
 265   2          case 0xa7:  return SFR_a7h;
 266   2          case 0xa8:  return SFR_a8h;
 267   2          case 0xa9:  return SFR_a9h;
 268   2          case 0xaa:  return SFR_aah;
 269   2          case 0xab:  return SFR_abh;
 270   2          case 0xac:  return SFR_ach;
 271   2          case 0xad:  return SFR_adh;
 272   2          case 0xae:  return SFR_aeh;
 273   2          case 0xaf:  return SFR_afh;
 274   2                                        
 275   2          case 0xb0:  return SFR_b0h;
 276   2          case 0xb1:  return SFR_b1h;
 277   2          case 0xb2:  return SFR_b2h;
 278   2          case 0xb3:  return SFR_b3h;
 279   2          case 0xb4:  return SFR_b4h;
 280   2          case 0xb5:  return SFR_b5h;
 281   2          case 0xb6:  return SFR_b6h;
 282   2          case 0xb7:  return SFR_b7h;
 283   2          case 0xb8:  return SFR_b8h;
 284   2          case 0xb9:  return SFR_b9h;
 285   2          case 0xba:  return SFR_bah;
 286   2          case 0xbb:  return SFR_bbh;
 287   2          case 0xbc:  return SFR_bch;
 288   2          case 0xbd:  return SFR_bdh;
 289   2          case 0xbe:  return SFR_beh;
 290   2          case 0xbf:  return SFR_bfh;
 291   2                                        
 292   2          case 0xc0:  return SFR_c0h;
 293   2          case 0xc1:  return SFR_c1h;
 294   2          case 0xc2:  return SFR_c2h;
 295   2          case 0xc3:  return SFR_c3h;
 296   2          case 0xc4:  return SFR_c4h;
 297   2          case 0xc5:  return SFR_c5h;
 298   2          case 0xc6:  return SFR_c6h;
C51 COMPILER V9.56.0.0   MONITOR_MCU                                                       07/18/2018 10:44:45 PAGE 6   

 299   2          case 0xc7:  return SFR_c7h;
 300   2          case 0xc8:  return SFR_c8h;
 301   2          case 0xc9:  return SFR_c9h;
 302   2          case 0xca:  return SFR_cah;
 303   2          case 0xcb:  return SFR_cbh;
 304   2          case 0xcc:  return SFR_cch;
 305   2          case 0xcd:  return SFR_cdh;
 306   2          case 0xce:  return SFR_ceh;
 307   2          case 0xcf:  return SFR_cfh;
 308   2                                        
 309   2          case 0xd0:  return SFR_d0h;
 310   2          case 0xd1:  return SFR_d1h;
 311   2          case 0xd2:  return SFR_d2h;
 312   2          case 0xd3:  return SFR_d3h;
 313   2          case 0xd4:  return SFR_d4h;
 314   2          case 0xd5:  return SFR_d5h;
 315   2          case 0xd6:  return SFR_d6h;
 316   2          case 0xd7:  return SFR_d7h;
 317   2          case 0xd8:  return SFR_d8h;
 318   2          case 0xd9:  return SFR_d9h;
 319   2          case 0xda:  return SFR_dah;
 320   2          case 0xdb:  return SFR_dbh;
 321   2          case 0xdc:  return SFR_dch;
 322   2          case 0xdd:  return SFR_ddh;
 323   2          case 0xde:  return SFR_deh;
 324   2          case 0xdf:  return SFR_dfh;
 325   2                                        
 326   2          case 0xe0:  return SFR_e0h;
 327   2          case 0xe1:  return SFR_e1h;
 328   2          case 0xe2:  return SFR_e2h;
 329   2          case 0xe3:  return SFR_e3h;
 330   2          case 0xe4:  return SFR_e4h;
 331   2          case 0xe5:  return SFR_e5h;
 332   2          case 0xe6:  return SFR_e6h;
 333   2          case 0xe7:  return SFR_e7h;
 334   2          case 0xe8:  return SFR_e8h;
 335   2          case 0xe9:  return SFR_e9h;
 336   2          case 0xea:  return SFR_eah;
 337   2          case 0xeb:  return SFR_ebh;
 338   2          case 0xec:  return SFR_ech;
 339   2          case 0xed:  return SFR_edh;
 340   2          case 0xee:  return SFR_eeh;
 341   2          case 0xef:  return SFR_efh;
 342   2                                        
 343   2          case 0xf0:  return SFR_f0h;
 344   2          case 0xf1:  return SFR_f1h;
 345   2          case 0xf2:  return SFR_f2h;
 346   2          case 0xf3:  return SFR_f3h;
 347   2          case 0xf4:  return SFR_f4h;
 348   2          case 0xf5:  return SFR_f5h;
 349   2          case 0xf6:  return SFR_f6h;
 350   2          case 0xf7:  return SFR_f7h;
 351   2          case 0xf8:  return SFR_f8h;
 352   2          case 0xf9:  return SFR_f9h;
 353   2          case 0xfa:  return SFR_fah;
 354   2          case 0xfb:  return SFR_fbh;
 355   2          case 0xfc:  return SFR_fch;
 356   2          case 0xfd:  return SFR_fdh;
 357   2          case 0xfe:  return SFR_feh;
 358   2          case 0xff:  return SFR_ffh;
 359   2      
 360   2          default: return 0;
C51 COMPILER V9.56.0.0   MONITOR_MCU                                                       07/18/2018 10:44:45 PAGE 7   

 361   2      
 362   2        }
 363   1      }
 364          
 365          //=============================================================================
 366          //      Help Message
 367          //=============================================================================
 368          void MCUHelp(void)
 369          {
 370   1      
 371   1        Puts("\n\r=======================================================");
 372   1        Puts("\n\r>>>     Welcome to Intersil Monitor  Rev 1.00     <<<");
 373   1        Puts("\n\r=======================================================");
 374   1        Puts("\n\r   MCU Rs ii             ; Read SFR");
 375   1        Puts("\n\r   MCU Ws ii dd          ; Write SFR");
 376   1        Puts("\n\r   MCU Ds                ; Dump SFR");
 377   1        Puts("\n\r   MCU Bs ii se dd       ; bitwise SFR. s:start bit, e:end bit");
 378   1        Puts("\n\r   MCU sfr               ; Dump SFR map");
 379   1        Puts("\n\r   MCU Rx ii             ; Read XDATA");
 380   1        Puts("\n\r   MCU Wx ii dd          ; Write XDATA");
 381   1        Puts("\n\r   MCU Dx [ii] [cc]      ; Dump XDATA");
 382   1      #if defined(SUPPORT_WATCHDOG) || defined(DEBUG_WATCHDOG)
 383   1        Puts("\n\r   MCU WDT [0/1/2]       ; WatchDog disable/enable/test");
 384   1      #endif
 385   1        Puts("\n\r   MCU stop              ; stop mode");
 386   1        Puts("\n\r   MCU off               ; turnoff MCU");
 387   1        Puts("\n\r   MCU IE n              ; enable interrupt");
 388   1        Puts("\n\r   MCU DE n              ; disable interrupt");
 389   1        Puts("\n\r   MCU EI [n]            ; extended interrupt");
 390   1        Puts("\n\r   MCU INT               ; help interrupt");
 391   1        Puts("\n\r");
 392   1      
 393   1      }
 394          #if 0
              void MCUHelp1(void)
              {
              
                Puts1("\n\r=======================================================");
                Puts1("\n\r>>>     Welcome to Intersil Monitor  Rev 1.00     <<<");
                Puts1("\n\r=======================================================");
                Puts1("\n\r   MCU Rs ii             ; Read SFR");
                Puts1("\n\r   MCU Ws ii dd          ; Write SFR");
                Puts1("\n\r   MCU Ds                ; Dump SFR");
                Puts1("\n\r   MCU Bs ii se dd       ; bitwise SFR. s:start bit, e:end bit");
                Puts1("\n\r   MCU sfr               ; Dump SFR map");
                Puts1("\n\r   MCU Rx ii             ; Read XDATA");
                Puts1("\n\r   MCU Wx ii dd          ; Write XDATA");
                Puts1("\n\r   MCU Dx [ii] [cc]      ; Dump XDATA");
              #if defined(SUPPORT_WATCHDOG) || defined(DEBUG_WATCHDOG)
                Puts1("\n\r   MCU WDT [0/1/2]       ; WatchDog disable/enable/test");
              #endif
                Puts1("\n\r   MCU stop              ; stop mode");
                Puts1("\n\r=======IE,DE,EI [n]====================================");
                Puts1("\n\r   MCU IE n              ; enable interrupt");
                Puts1("\n\r   MCU DE n              ; disable interrupt");
                Puts1("\n\r   MCU EI [n]            ; extended interrupt");
                Puts1("\n\r   MCU INT               ; help interrupt");
                Puts1("\n\r");
              
              }
              #endif
 422          
C51 COMPILER V9.56.0.0   MONITOR_MCU                                                       07/18/2018 10:44:45 PAGE 8   

 423          #pragma SAVE
 424          #pragma OPTIMIZE(8,SPEED)
 425          void MCU_OFF_function(void)
 426          {
 427   1        Printf("\n\r!!!MCU Off");
 428   1        WriteTW88(REG400,0);
 429   1      
 430   1        //if 4B mode, turn off
 431   1        if(SpiFlash4ByteAddr) {
 432   2          SpiFlash_Set4BytesAddress(OFF);
 433   2          Printf(", SPI 4B Mode:%bd ",SpiFlash4ByteAddr);
 434   2        }
 435   1        WaitVBlank(1);
 436   1        SFRB_EA=0;
 437   1        SFR_CACHE_EN=0; 
 438   1        WriteTW88(REG4ED, 0x55);
 439   1        WriteTW88(REG4ED, 0xAA);
 440   1        WriteTW88(REG4EC, 0);   
 441   1      }
 442          #pragma RESTORE
 443          
 444          
 445          #if 0
              void MonitorMCU_SFR(void)
              {
                BYTE  i, j;
                BYTE idx;
                  BYTE len;
              
                  DWORD UsedTime;
                      SFRB_ET0=0;
                  UsedTime = SystemClock;
                      SFRB_ET0=1;
              
                  Printf("\n\rDump DP80390 SFR");
              
              
              
                  for(j=0x00; j < 0x80; j++) {
                    idx = j+0x80;
                    for(i=0; i < 0x80; i++) {
                      if(SFR_map[i].idx == idx)
                        break;  //success
                      if(SFR_map[i].idx == 0) {
                        i = 0x80;
                        break;  //fail
                      }
                    }
                    if((j&0x07) == 0)
                      Puts("\n\r");
                    if(i != 0x80) {
                      Printf("%02bx:%05s",SFR_map[i].idx, SFR_map[i].name);
                      len = TWstrlen(SFR_map[i].name);
                      len = 5-len;  //max 5.
                      for(i=0; i < len; i++)
                        Puts(" ");
                      Printf(":%02bx ",ReadSFR(idx));
                    }
                    else {
                      //Printf("--:-----:--_");   
                      //Printf("            ");   
                      Printf("   .....    ");   
C51 COMPILER V9.56.0.0   MONITOR_MCU                                                       07/18/2018 10:44:45 PAGE 9   

                    }
                  }
                      //BKTODO: user SFRB_ET0=0 & SFRB_ET0==1
                  UsedTime = SystemClock - UsedTime;
                  Printf("\n\rUsedTime:%ld.%ldsec", UsedTime/100, UsedTime%100 );
              }
              #endif
 492          
 493          //=============================================================================
 494          //
 495          //=============================================================================
 496          void MonitorMCU(void)
 497          {
 498   1        BYTE ret, i, j;
 499   1        BYTE idx;
 500   1         
 501   1        BYTE argv_num1, argv_num2; //, argv_num3;
 502   1      
 503   1        //if ( argc>2) {             BKFYI: It will hurt a speed
 504   1        //  argv_num1 = a2h( argv[2] );
 505   1        //  if ( argc>3 ) {
 506   1        //    argv_num2 = a2h( argv[3] );
 507   1        //    if (argc > 4) {
 508   1        //      argv_num3 = a2h( argv[4] );
 509   1        //    }
 510   1        //  }
 511   1        //}
 512   1      
 513   1        //---------------------- Write SFR -----------------------
 514   1        if( !stricmp( argv[1], "Ws" ) ) {
 515   2          if( argc < 4 ) {
 516   3            Printf(" ----> Missing parameter !!!");
 517   3            return;
 518   3          }
 519   2          argv_num1 = a2h( argv[2] );
 520   2          argv_num2 = a2h( argv[3] );
 521   2          ret = WriteSFR(argv_num1, argv_num2);
 522   2          if( echo ) {
 523   3            Printf("\n\rMCU SFR Write: %02bx=%02bx (%02bx) ", argv_num1, argv_num2, ret);
 524   3            for(i=0; i<8; i++) {
 525   4              if( ret & 0x80 ) Puts("1"); else Puts("0");
 526   4              ret <<=1;
 527   4            }
 528   3          }
 529   2        }
 530   1      
 531   1        //---------------------- Read SFR ------------------------
 532   1        else if( !stricmp( argv[1], "Rs" ) ) {
 533   2          if( argc < 3 ) {
 534   3            Printf(" ----> Missing parameter !!!");
 535   3            return;
 536   3          }
 537   2          argv_num1 = a2h( argv[2] );
 538   2          ret = ReadSFR(argv_num1);
 539   2          if( echo ) {
 540   3            Printf("\n\rMCU SFR Read: %02bx=%02bx ", argv_num1, ret);
 541   3            for(i=0; i<8; i++) {
 542   4              if( ret & 0x80 ) Puts("1"); else Puts("0");
 543   4              ret <<=1;
 544   4            }
 545   3          }
 546   2        }
C51 COMPILER V9.56.0.0   MONITOR_MCU                                                       07/18/2018 10:44:45 PAGE 10  

 547   1      
 548   1        //---------------------- Dump SFR ------------------------
 549   1        else if( !stricmp( argv[1], "Ds" ) ) {
 550   2      
 551   2          Printf("\n\rDump DP8051 SFR");
 552   2          for (j=0x8; j<=0x0f; j++) {
 553   3            Printf("\n\rSFR %02bx: ", j*0x10);
 554   3            for(i=0; i<8; i++) Printf("%02bx ", ReadSFR(j*0x10+i) );
 555   3            Printf("- ");
 556   3            for(; i<16; i++) Printf("%02bx ", ReadSFR(j*0x10+i) );
 557   3          }
 558   2      
 559   2        }
 560   1        //---------------------- Bitwise SFR control---------------------
 561   1        else if( !stricmp( argv[1], "Bs" ) ) {
 562   2          Printf("\n\rSorry!!");
 563   2        }
 564   1        //---------------------- Dump SFR map---------------------
 565   1        else if( !stricmp( argv[1], "SFR" ) ) {
 566   2          BYTE len;
 567   2      
 568   2          DWORD UsedTime;
 569   2              SFRB_ET0=0;
 570   2          UsedTime = SystemClock;
 571   2              SFRB_ET0=1;
 572   2      
 573   2          Printf("\n\rDump DP80390 SFR");
 574   2      
 575   2      
 576   2      
 577   2          for(j=0x00; j < 0x80; j++) {
 578   3            idx = j+0x80;
 579   3            for(i=0; i < 0x80; i++) {
 580   4              if(SFR_map[i].idx == idx)
 581   4                break;  //success
 582   4              if(SFR_map[i].idx == 0) {
 583   5                i = 0x80;
 584   5                break;  //fail
 585   5              }
 586   4            }
 587   3            if((j&0x07) == 0)
 588   3              Puts("\n\r");
 589   3            if(i != 0x80) {
 590   4              Printf("%02bx:%05s",SFR_map[i].idx, SFR_map[i].name);
 591   4              len = TWstrlen(SFR_map[i].name);
 592   4              len = 5-len;  //max 5.
 593   4              for(i=0; i < len; i++)
 594   4                Puts(" ");
 595   4              Printf(":%02bx ",ReadSFR(idx));
 596   4            }
 597   3            else {
 598   4              //Printf("--:-----:--_");   
 599   4              //Printf("            ");   
 600   4              Printf("   .....    ");   
 601   4            }
 602   3          }
 603   2              //BKTODO: user SFRB_ET0=0 & SFRB_ET0=1
 604   2          UsedTime = SystemClock - UsedTime;
 605   2          Printf("\n\rUsedTime:%ld.%ldsec", UsedTime/100, UsedTime%100 );
 606   2      
 607   2        }
 608   1        //---------------------- Dump xdata ----------------------
C51 COMPILER V9.56.0.0   MONITOR_MCU                                                       07/18/2018 10:44:45 PAGE 11  

 609   1        else if( !stricmp( argv[1], "Wx" ) ) {
 610   2      
 611   2          WORD addr;
 612   2      
 613   2          if( argc < 4 ) {
 614   3            Printf(" ----> Missing parameter !!!");
 615   3            return;
 616   3          }
 617   2          addr      = a2h( argv[2] );
 618   2          argv_num2 = a2h( argv[3] );
 619   2          
 620   2          *(BYTE xdata *)(addr) = argv_num2;
 621   2          ret = *(BYTE xdata *)(addr);
 622   2          
 623   2          if( echo ) {
 624   3            Printf("\n\rMCU XDATA Write: %04x=%02bx (%02bx) ", addr, argv_num2, ret);
 625   3          }
 626   2        }
 627   1      
 628   1        //---------------------- Dump xdata ----------------------
 629   1        else if( !stricmp( argv[1], "Rx" ) ) {
 630   2      
 631   2          WORD addr;
 632   2      
 633   2          if( argc < 3 ) {
 634   3            Printf(" ----> Missing parameter !!!");
 635   3            return;
 636   3          }
 637   2          addr = a2h(argv[2]);
 638   2      
 639   2          ret = *(BYTE xdata *)(addr);
 640   2      
 641   2          if( echo ) {
 642   3            Printf("\n\rMCU XDATA Read: %04x=%02bx ", addr, ret);
 643   3          }
 644   2        }
 645   1      
 646   1        //---------------------- Dump xdata ----------------------
 647   1        else if( !stricmp( argv[1], "Dx" ) ) {
 648   2      
 649   2          //data BYTE xdata *osddata = (BYTE xdata *)0xc002;
 650   2      
 651   2          WORD addr=0x0000, len=0x100;
 652   2      
 653   2          if( argc>=3 ) addr = a2h(argv[2]);
 654   2          if( argc>=4 ) len  = a2h(argv[3]);
 655   2      
 656   2          Printf("\n\rDump DP8051 XDATA 0x%04x ", addr);
 657   2          for (j=0; j<len/0x10; j++) {
 658   3            Printf("\n\rXDATA %04x: ", (WORD)(addr+j*0x10) );
 659   3            for(i=0; i<8; i++) Printf("%02bx ", *(BYTE xdata *)(addr + j*0x10+i) );
 660   3            Printf("- ");
 661   3            for(; i<16; i++) Printf("%02bx ", *(BYTE xdata *)(addr + j*0x10+i) );
 662   3          }
 663   2      
 664   2        }
 665   1      
 666   1        //---------------------- Enable WDT ------------------------
 667   1      #if defined(SUPPORT_WATCHDOG) || defined(DEBUG_WATCHDOG)
 668   1        else if( !stricmp( argv[1], "WDT" ) ) {
 669   2          if(argc > 2) {
 670   3                  /* 1:enable */
C51 COMPILER V9.56.0.0   MONITOR_MCU                                                       07/18/2018 10:44:45 PAGE 12  

 671   3            if( argv[2][0]=='1' ) {
 672   4              BYTE mode;
 673   4              if(argc > 3) 
 674   4                mode=a2h(argv[3]);
 675   4              else  
 676   4                mode = 1;  /* default mode: 4 sec */
 677   4      
 678   4              EnableWatchdog(mode);
 679   4              Printf("\n\rWatchdog Timer is enabled. mode:%bx", mode);
 680   4            }
 681   3                  /*2:test */
 682   3            else if( argv[2][0]=='2' ) {
 683   4              Puts("Watchdog test....");
 684   4              RestartWatchdog();
 685   4              Puts("start....");
 686   4              //SFRB_EWDI = 0;
 687   4      
 688   4              delay1s(1,__LINE__);
 689   4              delay1s(1,__LINE__);
 690   4              delay1s(1,__LINE__);
 691   4              delay1s(1,__LINE__);
 692   4              delay1s(1,__LINE__);
 693   4              delay1s(1,__LINE__);
 694   4              delay1s(1,__LINE__);
 695   4              //system reset before you here.
 696   4              Puts("..FAIL");
 697   4            }
 698   3            else if( argv[2][0]=='3' ) {
 699   4              volatile DWORD StartClock;
 700   4                       DWORD UsedClock;
 701   4              Puts("Watchdog test....\n");
 702   4      
 703   4              RestartWatchdog();
 704   4              Puts("start....\n");
 705   4              SFRB_ET0=0;
 706   4              StartClock = SystemClock;
 707   4              SFRB_ET0=1;
 708   4      
 709   4              //SFRB_EWDI = 0;
 710   4              while(1) {
 711   5                SFRB_ET0=0;
 712   5                UsedClock = SystemClock; //10mSec   
 713   5                SFRB_ET0=1;
 714   5                UsedClock -= StartClock;
 715   5      
 716   5                Printf("\r%ld.%02ld Sec", UsedClock/100, UsedClock%100 );
 717   5                Puts("     ");  
 718   5                Puts("     ");  
 719   5              }
 720   4              //system reset before you here.
 721   4              Puts("..FAIL");
 722   4            }
 723   3                  /* 0:disable */
 724   3            else {
 725   4              DisableWatchdog();
 726   4              Printf("\n\rWatchdog Timer is disabled.");
 727   4            }
 728   3          }
 729   2          else {
 730   3            Puts("\n\rWatchdog ");
 731   3            if(SFR_WDCON & 0x02) Puts("On");
 732   3            else                 Puts("Off");
C51 COMPILER V9.56.0.0   MONITOR_MCU                                                       07/18/2018 10:44:45 PAGE 13  

 733   3      #ifdef DEBUG_WATCHDOG
                    Puts(" with DEBUG_WATCH");
              #endif
 736   3          }
 737   2      
 738   2        }
 739   1      #endif
 740   1        else if( !stricmp( argv[1], "PMM" ) ) {
 741   2          if( argv[2][0]=='1' ) {
 742   3            //test PMM mode can recover or not
 743   3            WriteTW88(REG009, 0x00);
 744   3            SFR_PCON |= 0x01;
 745   3            WriteTW88(REG009,0x01);
 746   3            SFR_PCON &= ~0x01;
 747   3            Printf("REG009:%bx", ReadTW88(REG009));
 748   3          }
 749   2          else if( argv[2][0]=='2' ) {
 750   3            volatile DWORD StartClock;
 751   3                     DWORD UsedClock;
 752   3            //test: PMM & timer
 753   3            SFRB_ET0=0;
 754   3            StartClock = SystemClock;
 755   3            SFRB_ET0=1;
 756   3      
 757   3            
 758   3            SFR_PCON |= 0x01;
 759   3            delay1ms(500);
 760   3            delay1ms(500);
 761   3            SFR_PCON &= ~0x01;
 762   3      
 763   3            SFRB_ET0=0;
 764   3            UsedClock = SystemClock; //10mSec   
 765   3            SFRB_ET0=1;
 766   3            UsedClock -= StartClock;
 767   3      
 768   3      
 769   3            Printf("\r%ld.%02ld Sec", UsedClock/100, UsedClock%100 );
 770   3          }
 771   2          else if( argv[2][0]=='3' ) {
 772   3            //test PMM mode can recover or not
 773   3            WriteTW88(REG009, 0x00);
 774   3            SFR_PCON |= 0x01;
 775   3            SFR_PCON &= ~0x01;
 776   3            Printf("REG009:%bx", ReadTW88(REG009));
 777   3          }
 778   2        }
 779   1        //---------------------- Enable INT ------------------------
 780   1        else if( !stricmp( argv[1], "IE" ) ) {
 781   2          if ( argc < 3 ) {
 782   3            Puts("\n\rMCU IE n 1/0 - MCU interrupt en/disable #n ");
 783   3            return;
 784   3          }
 785   2          argv_num1 = a2h( argv[2] );
 786   2      
 787   2          if( argv[3][0]=='1' ) {
 788   3            EnableExtInterrupt( argv_num1 );
 789   3            Printf("\n\rInterrupt #%d is enabled.", argv_num1);
 790   3          }
 791   2          else {
 792   3            DisableExtInterrupt( argv_num1 );
 793   3            Printf("\n\rInterrupt #%d is disabled.", argv_num1);
 794   3          }
C51 COMPILER V9.56.0.0   MONITOR_MCU                                                       07/18/2018 10:44:45 PAGE 14  

 795   2        }
 796   1        //---------------------- Extended INT ------------------------
 797   1        else if( !stricmp( argv[1], "DE" ) ) {
 798   2          Printf("\n\rEnable DE-end Interrupt");
 799   2          SFRB_IE1 = 0; // Clear Pending Interrupt
 800   2          SFRB_EX1 = 1; // Enable Interrupt
 801   2        }
 802   1        //---------------------- Extended INT ------------------------
 803   1        else if( !stricmp( argv[1], "EI" ) ) {
 804   2        extern DWORD ExtIntCount;
 805   2          if( argc < 3 ) {
 806   3            Printf("\n\rMCU extend Interrupt Status: %02bx, count: %ld", EXINT_STATUS, ExtIntCount );
 807   3            ExtIntCount = 0;
 808   3      #ifdef DEBUG_ISR
                    Printf(" MCU %04x", MCU_INT_STATUS);
                    MCU_INT_STATUS = 0;
              #endif
 812   3            return;
 813   3          }
 814   2          argv_num1 = a2h( argv[2] );
 815   2      
 816   2          EXINT_STATUS &= argv_num1;
 817   2          
 818   2        }
 819   1        //---------------------- INTERRUPT Counter---------------------
 820   1      #ifdef DEBUG_ISR
                else if( !stricmp( argv[1], "INTC" ) ) {
                  BYTE i;
                  WORD counter;
                  for(i=0; i <= 20; i++) {
                    SFRB_EA=0;
                    counter = INTR_counter[i];  //read
                    INTR_counter[i]=0;      //clear
                    SFRB_EA=1;
                    
                    if(counter) {
                      Printf("\n\r%02bd:%d",i,counter);
                    }
                  }
                }
              #endif
 836   1      #ifdef DEBUG_UART
                else if( !stricmp( argv[1], "UART" ) )
                  DEBUG_dump_uart0();
              #if 0
                   {
                  BYTE i;
                  if(UART0_OVERFLOW_counter) {
                    Printf("\n\rUART0 Overflow:%bd",UART0_OVERFLOW_counter);
                    UART0_OVERFLOW_counter = 0;  //clear
                  }
                  if(UART0_MAX_counter) {
                    Printf("\n\rUART0 Max:%bd",UART0_MAX_counter);
                    UART0_MAX_counter = 0;  //clear
                  }
                  Printf("\n\rRS_buf[%bd], RS_in:%bd RS_out:%bd",RS_BUF_MAX,RS_in,RS_out);
                  for(i=0; i <  RS_BUF_MAX; i++)
                    Printf(" %02bx", RS_buf[i]);
                }
              #endif
              #endif
 856   1      
C51 COMPILER V9.56.0.0   MONITOR_MCU                                                       07/18/2018 10:44:45 PAGE 15  

 857   1        //---------------------- Interrupt Help ------------------------
 858   1        else if( !stricmp( argv[1], "INT" ) ) {
 859   2          Puts("\n\r #:Description          PORT    Enable  Flag");
 860   2          Puts("\n\r 0:INT0 Chip status     P2.0  A8[0]");
 861   2          Puts("\n\r 1:timer0               Px.x  A8[1]");
 862   2          Puts("\n\r 2:INT1 DE End          P2.1  A8[2]");
 863   2          Puts("\n\r 3:timer1 Tsc           Px.x  A8[3]");
 864   2          Puts("\n\r 4:UART0                Px.x  A8[4]");
 865   2          Puts("\n\r 5:timer2 Remocon       P2.0  A8[5]");
 866   2          Puts("\n\r 6:UART1                Px.x  A8[6]");
 867   2          Puts("\n\r 7:INT2 DMA Done        Px.x  E8[0]");
 868   2          Puts("\n\r 8:INT3 Tsc Ready       Px.x  E8[1]");
 869   2          Puts("\n\r 9:INT4 Reserved        Px.x  E8[2]");
 870   2          Puts("\n\r10:INT5 Reserved        Px.x  E8[3]");
 871   2          Puts("\n\r11:INT6 Pen INTR        Px.x  E8[4]");
 872   2          Puts("\n\r12:Watchdog             Px.x  E8[5]");
 873   2          Puts("\n\r13:INT7                 P1.0  FB[0]  FA[0]");
 874   2          Puts("\n\r14:INT8                 P1.1  FB[1]  FA[1]");
 875   2          Puts("\n\r15:INT9                 P1.2  FB[2]  FA[2]");
 876   2          Puts("\n\r16:INT10                P1.3  FB[3]  FA[3]");
 877   2          Puts("\n\r17:INT11 Remocon        P1.4  FB[4]  FA[4]");
 878   2          Puts("\n\r18:INT12 PowerDown      P1.5  FB[5]  FA[5]");
 879   2          Puts("\n\r19:INT13                P1.6  FB[6]  FA[6]");
 880   2          Puts("\n\r20:INT14                P1.7  FB[7]  FA[7]");
 881   2      
 882   2      
 883   2          //# on/off
 884   2          //
 885   2      
 886   2        }
 887   1        //---------------------- MCU stop------------------------
 888   1        else if( !stricmp( argv[1], "stop" ) ) {
 889   2          Printf("\n\rGoto STOP mode");
 890   2          Printf("\n\rTo resume, write REG0D4[1]=1 by I2C");
 891   2          SFR_PCON |= 0x12;
 892   2          //----- need nop to clean up the pipeline.
 893   2          _nop_();
 894   2          _nop_();
 895   2          _nop_();
 896   2          _nop_();
 897   2          _nop_();
 898   2          _nop_();
 899   2          _nop_();
 900   2          _nop_();
 901   2          _nop_();
 902   2          _nop_();    
 903   2        }
 904   1        //---------------------- MCU off------------------------
 905   1        else if( !stricmp( argv[1], "off" ) ) {
 906   2          MCU_OFF_function();
 907   2        }
 908   1        //---------------------- Read SFR ------------------------
 909   1        else if( !stricmp( argv[1], "H" ) || !stricmp( argv[1], "HELP" ) || !stricmp( argv[1], "?" ) ) {
 910   2          MCUHelp();
 911   2        }
 912   1        //--------------------------------------------------------
 913   1        else
 914   1          Printf("\n\rInvalid command..."); 
 915   1        
 916   1        //--------------------------------------------------------
 917   1      }
 918          
C51 COMPILER V9.56.0.0   MONITOR_MCU                                                       07/18/2018 10:44:45 PAGE 16  

 919          #if 0
              void Monitor1MCU(void)
              {
                BYTE ret, i, j;
                BYTE idx;
                 
                BYTE argv_num1, argv_num2; //, argv_num3;
              
                //if ( argc>2) {             BKFYI: It will hurt a speed
                //  argv_num1 = a2h( argv[2] );
                //  if ( argc>3 ) {
                //    argv_num2 = a2h( argv[3] );
                //    if (argc > 4) {
                //      argv_num3 = a2h( argv[4] );
                //    }
                //  }
                //}
              
                //---------------------- Write SFR -----------------------
                if( !stricmp( argv1[1], "Ws" ) ) {
                  if( argc1 < 4 ) {
                    Printf1(" ----> Missing parameter !!!");
                    return;
                  }
                  argv_num1 = a2h( argv1[2] );
                  argv_num2 = a2h( argv1[3] );
                  ret = WriteSFR(argv_num1, argv_num2);
                  if( echo ) {
                    Printf1("\n\rMCU SFR Write: %02bx=%02bx (%02bx) ", argv_num1, argv_num2, ret);
                    for(i=0; i<8; i++) {
                      if( ret & 0x80 ) Puts1("1"); else Puts1("0");
                      ret <<=1;
                    }
                  }
                }
              
                //---------------------- Read SFR ------------------------
                else if( !stricmp( argv1[1], "Rs" ) ) {
                  if( argc1 < 3 ) {
                    Printf1(" ----> Missing parameter !!!");
                    return;
                  }
                  argv_num1 = a2h( argv1[2] );
                  ret = ReadSFR(argv_num1);
                  if( echo ) {
                    Printf1("\n\rMCU SFR Read: %02bx=%02bx ", argv_num1, ret);
                    for(i=0; i<8; i++) {
                      if( ret & 0x80 ) Puts1("1"); else Puts1("0");
                      ret <<=1;
                    }
                  }
                }
              
                //---------------------- Dump SFR ------------------------
                else if( !stricmp( argv1[1], "Ds" ) ) {
              
                  Printf1("\n\rDump DP8051 SFR");
                  for (j=0x8; j<=0x0f; j++) {
                    Printf1("\n\rSFR %02bx: ", j*0x10);
                    for(i=0; i<8; i++) Printf1("%02bx ", ReadSFR(j*0x10+i) );
                    Printf1("- ");
                    for(; i<16; i++) Printf1("%02bx ", ReadSFR(j*0x10+i) );
C51 COMPILER V9.56.0.0   MONITOR_MCU                                                       07/18/2018 10:44:45 PAGE 17  

                  }
              
                }
                //---------------------- Bitwise SFR control---------------------
                else if( !stricmp( argv1[1], "Bs" ) ) {
              
                }
                //---------------------- Dump SFR map---------------------
                else if( !stricmp( argv1[1], "SFR" ) ) {
                  BYTE len;
              #ifdef SUPPORT_TW8836
                  Printf1("\n\rDump DP8051 SFR");
              #else 
                  Printf1("\n\rDump DP8051 SFR");
              #endif  
                  for(j=0x00; j < 0x80; j++) {
                    idx = j+0x80;
                    for(i=0; i < 0x80; i++) {
                      if(SFR_map[i].idx == idx)
                        break;  //success
                      if(SFR_map[i].idx == 0) {
                        i = 0x80;
                        break;  //fail
                      }
                    }
                    if((j&0x07) == 0)
                      Puts1("\n\r");
                    if(i != 0x80) {
                      Printf1("%02bx:%05s",SFR_map[i].idx, SFR_map[i].name);
                      len = TWstrlen(SFR_map[i].name);
                      len = 5-len;  //max 5.
                      for(i=0; i < len; i++)
                        Puts1(" ");
                      Printf1(":%02bx ",ReadSFR(idx));
                    }
                    else {
                      //Printf("--:-----:--_");   
                      //Printf("            ");   
                      Printf1("   .....    ");   
                    }
                  }
                }
                //---------------------- Dump xdata ----------------------
                else if( !stricmp( argv1[1], "Wx" ) ) {
              
                  WORD addr;
              
                  if( argc1 < 4 ) {
                    Printf1(" ----> Missing parameter !!!");
                    return;
                  }
                  addr      = a2h( argv1[2] );
                  argv_num2 = a2h( argv1[3] );
                  
                  *(BYTE xdata *)(addr) = argv_num2;
                  ret = *(BYTE xdata *)(addr);
                  
                  if( echo ) {
                    Printf1("\n\rMCU XDATA Write: %04x=%02bx (%02bx) ", addr, argv_num2, ret);
                  }
                }
              
C51 COMPILER V9.56.0.0   MONITOR_MCU                                                       07/18/2018 10:44:45 PAGE 18  

                //---------------------- Dump xdata ----------------------
                else if( !stricmp( argv1[1], "Rx" ) ) {
              
                  WORD addr;
              
                  if( argc1 < 3 ) {
                    Printf(" ----> Missing parameter !!!");
                    return;
                  }
                  addr = a2h(argv1[2]);
              
                  ret = *(BYTE xdata *)(addr);
              
                  if( echo ) {
                    Printf1("\n\rMCU XDATA Read: %04x=%02bx ", addr, ret);
                  }
                }
              
                //---------------------- Dump xdata ----------------------
                else if( !stricmp( argv1[1], "Dx" ) ) {
              
                  //data BYTE xdata *osddata = (BYTE xdata *)0xc002;
              
                  WORD addr=0x0000, len=0x100;
              
                  if( argc>=3 ) addr = a2h(argv1[2]);
                  if( argc>=4 ) len  = a2h(argv1[3]);
              
                  Printf1("\n\rDump DP8051 XDATA 0x%04x ", addr);
                  for (j=0; j<len/0x10; j++) {
                    Printf1("\n\rXDATA %04x: ", (WORD)(addr+j*0x10) );
                    for(i=0; i<8; i++) Printf1("%02bx ", *(BYTE xdata *)(addr + j*0x10+i) );
                    Printf1("- ");
                    for(; i<16; i++) Printf1("%02bx ", *(BYTE xdata *)(addr + j*0x10+i) );
                  }
              
                }
              
                //---------------------- Enable WDT ------------------------
              #if defined(SUPPORT_WATCHDOG) || defined(DEBUG_WATCHDOG)
                else if( !stricmp( argv1[1], "WDT" ) ) {
                  if(argc1 > 2) {
                    if( argv1[2][0]=='1' ) {
                      BYTE mode;
                      if(argc1 > 3) 
                        mode=a2h(argv1[3]);
                      else  
                        mode = 0;
              
                      EnableWatchdog(mode);
                      Printf1("\n\rWatchdog Timer is enabled. mode:%bx", mode);
                    }
                    else if( argv1[2][0]=='2' ) {
                      Puts1("Watchdog test....");
                      RestartWatchdog();
                      Puts1("start....");
                      delay1s(1,__LINE__);
                      delay1s(1,__LINE__);
                      delay1s(1,__LINE__);
                      delay1s(1,__LINE__);
                      delay1s(1,__LINE__);
                      //system reset before you here.
C51 COMPILER V9.56.0.0   MONITOR_MCU                                                       07/18/2018 10:44:45 PAGE 19  

                      Puts1("..FAIL");
                    }
                    else {
                      DisableWatchdog();
                      Printf1("\n\rWatchdog Timer is disabled.");
                    }
                  }
                  else {
                    Puts1("\n\rWatchdog ");
                    if(SFR_WDCON & 0x02) Puts1("On");
                    else                 Puts1("Off");
              #ifdef DEBUG_WATCHDOG
                    Puts1(" with DEBUG_WATCH");
              #endif
                  }
              
                }
              #endif
                //---------------------- Enable INT ------------------------
                else if( !stricmp( argv1[1], "IE" ) ) {
                  if ( argc < 3 ) {
                    Puts1("\n\rMCU IE n 1/0 - MCU interrupt en/disable #n ");
                    return;
                  }
                  argv_num1 = a2h( argv1[2] );
              
                  if( argv1[3][0]=='1' ) {
                    EnableExtInterrupt( argv_num1 );
                    Printf1("\n\rInterrupt #%d is enabled.", argv_num1);
                  }
                  else {
                    DisableExtInterrupt( argv_num1 );
                    Printf1("\n\rInterrupt #%d is disabled.", argv_num1);
                  }
                }
                //---------------------- Extended INT ------------------------
                else if( !stricmp( argv1[1], "DE" ) ) {
                  Printf1("\n\rEnable DE-end Interrupt");
                  SFR_IE1 = 0;  // Clear Pending Interrupt
                  SFR_EX1 = 1;  // Enable Interrupt
                }
                //---------------------- Extended INT ------------------------
                else if( !stricmp( argv1[1], "EI" ) ) {
                extern DWORD ExtIntCount;
                  if( argc1 < 3 ) {
                    Printf1("\n\rMCU extend Interrupt Status: %02bx, count: %ld", EXINT_STATUS, ExtIntCount );
                    ExtIntCount = 0;
              #ifdef DEBUG_ISR
                    Printf1(" MCU %04x", MCU_INT_STATUS);
                    MCU_INT_STATUS = 0;
              #endif
                    return;
                  }
                  argv_num1 = a2h( argv1[2] );
              
                  EXINT_STATUS &= argv_num1;
                  
                }
                //---------------------- Interrupt Help ------------------------
                else if( !stricmp( argv1[1], "INT" ) ) {
                  Puts1("\n\r #:Description          PORT    Enable  Flag");
                  Puts1("\n\r 0:INT0 Chip status     P2.0 A8[0]");
C51 COMPILER V9.56.0.0   MONITOR_MCU                                                       07/18/2018 10:44:45 PAGE 20  

                  Puts1("\n\r 1:timer0               Px.x A8[1]");
                  Puts1("\n\r 2:INT1 DE End          P2.1 A8[2]");
                  Puts1("\n\r 3:timer1 Tsc           Px.x A8[3]");
                  Puts1("\n\r 4:UART0                Px.x A8[4]");
                  Puts1("\n\r 5:timer2 Remocon       P2.0 A8[5]");
                  Puts1("\n\r 6:UART1                Px.x A8[6]");
                  Puts1("\n\r 7:INT2 DMA Done        Px.x E8[0]");
                  Puts1("\n\r 8:INT3 Tsc Ready       Px.x E8[1]");
                  Puts1("\n\r 9:INT4 Reserved        Px.x E8[2]");
                  Puts1("\n\r10:INT5 Reserved        Px.x E8[3]");
                  Puts1("\n\r11:INT6 Pen INTR        Px.x E8[4]");
                  Puts1("\n\r12:Watchdog             Px.x E8[5]");
                  Puts1("\n\r13:INT7                 P1.0 FB[0]  FA[0]");
                  Puts1("\n\r14:INT8                 P1.1 FB[1]  FA[1]");
                  Puts1("\n\r15:INT9 (Remocon)       P1.2 FB[2]  FA[2]");
                  Puts1("\n\r16:INT10                P1.3 FB[3]  FA[3]");
                  Puts1("\n\r17:INT11                P1.4 FB[4]  FA[4]");
                  Puts1("\n\r18:INT12 (PowerDown     P1.5 FB[5]  FA[5]");
                  Puts1("\n\r19:INT13                P1.6 FB[6]  FA[6]");
                  Puts1("\n\r20:INT14                P1.7 FB[7]  FA[7]");
              
              
                  //# on/off
                  //
              
                }
                //---------------------- PMU stop------------------------
                else if( !stricmp( argv1[1], "stop" ) ) {
                  Printf1("\n\rGoto STOP mode");
                  Printf1("\n\rTo resume, write REG0D4[1]=1 by I2C");
                  SFR_PCON |= 0x12;
                  //----- need nop to clean up the pipeline.
                  _nop_();
                  _nop_();
                  _nop_();
                  _nop_();
                  _nop_();
                  _nop_();
                  _nop_();
                  _nop_();
                  _nop_();
                  _nop_();    
                }
                //---------------------- Read SFR ------------------------
                else if( !stricmp( argv1[1], "H" ) || !stricmp( argv1[1], "HELP" ) || !stricmp( argv1[1], "?" ) ) {
                  MCUHelp1();
                }
                //--------------------------------------------------------
                else
                  Printf1("\n\rInvalid command...");  
                
                //--------------------------------------------------------
              }
              
              
              #endif
1223          
*** WARNING C294 IN LINE 721 OF source36\Monitor_MCU.c: unreachable code
C51 COMPILER V9.56.0.0   MONITOR_MCU                                                       07/18/2018 10:44:45 PAGE 21  

ASSEMBLY LISTING OF GENERATED OBJECT CODE


             ; FUNCTION Com0312 (BEGIN)
0000         L?0787:
0000 A3                INC     DPTR
0001         L?0788:
0001 F0                MOVX    @DPTR,A
0002 90000000    E     MOV     DPTR,#argv+03H
0006         L?0789:
0006 E0                MOVX    A,@DPTR
0007 FB                MOV     R3,A
0008 A3                INC     DPTR
0009 E0                MOVX    A,@DPTR
000A FA                MOV     R2,A
000B A3                INC     DPTR
000C E0                MOVX    A,@DPTR
000D F9                MOV     R1,A
000E 22                RET     
000F         L?0790:
000F C2A9              CLR     SFRB_ET0
0011 AF00        E     MOV     R7,SystemClock+03H
0013 AE00        E     MOV     R6,SystemClock+02H
0015 AD00        E     MOV     R5,SystemClock+01H
0017 AC00        E     MOV     R4,SystemClock
0019 90000000    R     MOV     DPTR,#UsedClock
001D 110000      E     ACALL   ?C?LSTXDATA
0020 D2A9              SETB    SFRB_ET0
0022 90000000    R     MOV     DPTR,#UsedClock
0026 E0                MOVX    A,@DPTR
0027 FC                MOV     R4,A
0028 A3                INC     DPTR
0029 E0                MOVX    A,@DPTR
002A FD                MOV     R5,A
002B A3                INC     DPTR
002C E0                MOVX    A,@DPTR
002D FE                MOV     R6,A
002E A3                INC     DPTR
002F E0                MOVX    A,@DPTR
0030 FF                MOV     R7,A
0031 90000000    R     MOV     DPTR,#StartClock
0035 E0                MOVX    A,@DPTR
0036 F8                MOV     R0,A
0037 A3                INC     DPTR
0038 E0                MOVX    A,@DPTR
0039 F9                MOV     R1,A
003A A3                INC     DPTR
003B E0                MOVX    A,@DPTR
003C FA                MOV     R2,A
003D A3                INC     DPTR
003E E0                MOVX    A,@DPTR
003F FB                MOV     R3,A
0040 C3                CLR     C
0041 EF                MOV     A,R7
0042 9B                SUBB    A,R3
0043 FF                MOV     R7,A
0044 EE                MOV     A,R6
0045 9A                SUBB    A,R2
0046 FE                MOV     R6,A
0047 ED                MOV     A,R5
0048 99                SUBB    A,R1
0049 FD                MOV     R5,A
C51 COMPILER V9.56.0.0   MONITOR_MCU                                                       07/18/2018 10:44:45 PAGE 22  

004A EC                MOV     A,R4
004B 98                SUBB    A,R0
004C FC                MOV     R4,A
004D 90000000    R     MOV     DPTR,#UsedClock
0051 110000      E     ACALL   ?C?LSTXDATA
0054 E4                CLR     A
0055 7B64              MOV     R3,#064H
0057 FA                MOV     R2,A
0058 F9                MOV     R1,A
0059 F8                MOV     R0,A
005A 90000000    R     MOV     DPTR,#UsedClock
005E E0                MOVX    A,@DPTR
005F FC                MOV     R4,A
0060 A3                INC     DPTR
0061 E0                MOVX    A,@DPTR
0062 FD                MOV     R5,A
0063 A3                INC     DPTR
0064 E0                MOVX    A,@DPTR
0065 FE                MOV     R6,A
0066 A3                INC     DPTR
0067 E0                MOVX    A,@DPTR
0068 FF                MOV     R7,A
0069 110000      E     ACALL   ?C?ULDIV
006C 90000000    E     MOV     DPTR,#?_Printf?BYTE+03H
0070 110000      E     ACALL   ?C?LSTXDATA
0073 90000000    R     MOV     DPTR,#UsedClock
0077         L?0791:
0077 E4                CLR     A
0078 7B64              MOV     R3,#064H
007A FA                MOV     R2,A
007B F9                MOV     R1,A
007C F8                MOV     R0,A
007D         L?0792:
007D E0                MOVX    A,@DPTR
007E FC                MOV     R4,A
007F A3                INC     DPTR
0080 E0                MOVX    A,@DPTR
0081 FD                MOV     R5,A
0082 A3                INC     DPTR
0083 E0                MOVX    A,@DPTR
0084 FE                MOV     R6,A
0085 A3                INC     DPTR
0086 22                RET     
0087         L?0794:
0087 90000000    E     MOV     DPTR,#?_stricmp?BYTE+03H
008B F0                MOVX    @DPTR,A
008C A3                INC     DPTR
008D 22                RET     
008E         L?0795:
008E 90000000    E     MOV     DPTR,#?_stricmp?BYTE+03H
0092 F0                MOVX    @DPTR,A
0093 A3                INC     DPTR
0094 22                RET     
0095         L?0796:
0095 5387FE            ANL     SFR_PCON,#0FEH
0098 7B00        R     MOV     R3,#MBYTE ?SC_1360
009A 7A00        R     MOV     R2,#HIGH ?SC_1360
009C 7900        R     MOV     R1,#LOW ?SC_1360
009E         L?0797:
009E 759300      E     MOV     DPX,#?C?XDATASEG
00A1 E500        E     MOV     A,regTW88+01H
00A3 2409              ADD     A,#09H
C51 COMPILER V9.56.0.0   MONITOR_MCU                                                       07/18/2018 10:44:45 PAGE 23  

00A5 F582              MOV     DPL,A
00A7 E4                CLR     A
00A8 3500        E     ADDC    A,regTW88
00AA 22                RET     
00AB         L?0798:
00AB 90000000    E     MOV     DPTR,#?_stricmp?BYTE+03H
00AF F0                MOVX    @DPTR,A
00B0 A3                INC     DPTR
00B1 22                RET     
00B2         L?0799:
00B2 90000000    E     MOV     DPTR,#?_stricmp?BYTE+03H
00B6 F0                MOVX    @DPTR,A
00B7 A3                INC     DPTR
00B8 22                RET     
00B9         L?0802:
00B9         L?0803:
00B9 E0                MOVX    A,@DPTR
00BA FF                MOV     R7,A
00BB 110000      E     ACALL   ?C?ULDIV
00BE AC00              MOV     R4,AR0
00C0 AD01              MOV     R5,AR1
00C2 AE02              MOV     R6,AR2
00C4 AF03              MOV     R7,AR3
00C6 90000000    E     MOV     DPTR,#?_Printf?BYTE+07H
00CA 010000      E     AJMP    ?C?LSTXDATA
00CD         L?0804:
00CD 90000000    E     MOV     DPTR,#?_stricmp?BYTE+03H
00D1 F0                MOVX    @DPTR,A
00D2 A3                INC     DPTR
00D3 22                RET     
00D4         L?0805:
00D4 C2A9              CLR     SFRB_ET0
00D6 90000000    R     MOV     DPTR,#StartClock
00DA         L?0806:
00DA AF00        E     MOV     R7,SystemClock+03H
00DC AE00        E     MOV     R6,SystemClock+02H
00DE AD00        E     MOV     R5,SystemClock+01H
00E0 AC00        E     MOV     R4,SystemClock
00E2 110000      E     ACALL   ?C?LSTXDATA
00E5 D2A9              SETB    SFRB_ET0
00E7 22                RET     
00E8         L?0807:
00E8 90000000    E     MOV     DPTR,#?_stricmp?BYTE+03H
00EC F0                MOVX    @DPTR,A
00ED A3                INC     DPTR
00EE 22                RET     
00EF         L?0809:
00EF         L?0810:
00EF 90000000    E     MOV     DPTR,#argc
00F3 E0                MOVX    A,@DPTR
00F4 C3                CLR     C
00F5 22                RET     
00F6         L?0811:
00F6 90000000    E     MOV     DPTR,#?_stricmp?BYTE+03H
00FA F0                MOVX    @DPTR,A
00FB A3                INC     DPTR
00FC 22                RET     
00FD         L?0814:
00FD 90000000    R     MOV     DPTR,#addr
0101 E0                MOVX    A,@DPTR
0102 FF                MOV     R7,A
0103 A3                INC     DPTR
C51 COMPILER V9.56.0.0   MONITOR_MCU                                                       07/18/2018 10:44:45 PAGE 24  

0104 E0                MOVX    A,@DPTR
0105 CF                XCH     A,R7
0106         L?0815:
0106 90000000    E     MOV     DPTR,#?_Printf?BYTE+03H
010A F0                MOVX    @DPTR,A
010B A3                INC     DPTR
010C 22                RET     
010D         L?0817:
010D 90000000    R     MOV     DPTR,#ret
0111 E0                MOVX    A,@DPTR
0112 25E0              ADD     A,ACC
0114 F0                MOVX    @DPTR,A
0115 A3                INC     DPTR
0116 E0                MOVX    A,@DPTR
0117 04                INC     A
0118 F0                MOVX    @DPTR,A
0119 E0                MOVX    A,@DPTR
011A C3                CLR     C
011B 9408              SUBB    A,#08H
011D 22                RET     
011E         L?0818:
011E A4                MUL     AB
011F 2400        R     ADD     A,#LOW SFR_map
0121 F582              MOV     DPL,A
0123 E5F0              MOV     A,B
0125 3400        R     ADDC    A,#HIGH SFR_map
0127 F583              MOV     DPH,A
0129 759300      E     MOV     DPX,#?C?CODESEG
012C E4                CLR     A
012D 93                MOVC    A,@A+DPTR
012E 22                RET     
012F         L?0819:
012F 90000000    E     MOV     DPTR,#?_stricmp?BYTE+03H
0133 F0                MOVX    @DPTR,A
0134 A3                INC     DPTR
0135 22                RET     
0136         L?0821:
0136 75F007            MOV     B,#07H
0139 A4                MUL     AB
013A 2400        R     ADD     A,#LOW SFR_map+01H
013C F9                MOV     R1,A
013D 7400        R     MOV     A,#HIGH SFR_map+01H
013F 35F0              ADDC    A,B
0141 FA                MOV     R2,A
0142 22                RET     
0143         L?0822:
0143         L?0823:
0143 90000000    R     MOV     DPTR,#i
0147 E0                MOVX    A,@DPTR
0148 FF                MOV     R7,A
0149 C3                CLR     C
014A 22                RET     
014B         L?0824:
014B 75F003            MOV     B,#03H
014E A4                MUL     AB
014F C583              XCH     A,DPH
0151 25F0              ADD     A,B
0153 C583              XCH     A,DPH
0155 22                RET     
0156         L?0825:
0156 F0                MOVX    @DPTR,A
0157 90000000    R     MOV     DPTR,#ret
C51 COMPILER V9.56.0.0   MONITOR_MCU                                                       07/18/2018 10:44:45 PAGE 25  

015B E0                MOVX    A,@DPTR
015C 90000000    E     MOV     DPTR,#?_Printf?BYTE+05H
0160 22                RET     
0161         L?0826:
0161 F583              MOV     DPH,A
0163 759300      E     MOV     DPX,#?C?XDATASEG
0166 E4                CLR     A
0167 F0                MOVX    @DPTR,A
0168 438701            ORL     SFR_PCON,#01H
016B 22                RET     
016C         L?0827:
016C         L?0828:
016C 90000000    R     MOV     DPTR,#j
0170 E0                MOVX    A,@DPTR
0171 04                INC     A
0172 22                RET     
0173         L?0829:
0173 90000000    E     MOV     DPTR,#?_stricmp?BYTE+03H
0177 F0                MOVX    @DPTR,A
0178 A3                INC     DPTR
0179 22                RET     
             ; FUNCTION Com0312 (END)

             ; FUNCTION _WriteSFR (BEGIN)
                                           ; SOURCE LINE # 76
;---- Variable 'dat' assigned to Register 'R5' ----
;---- Variable 'addr' assigned to Register 'R7' ----
                                           ; SOURCE LINE # 77
                                           ; SOURCE LINE # 78
0000 EF                MOV     A,R7
0001 2480              ADD     A,#080H
0003 B48000            CJNE    A,#080H,?C0632
0006         ?C0632:
0006 4003              JC      $ + 5H
0008 010000      R     AJMP    ?C0001
000B 90000000    R     MOV     DPTR,#?C0633
000F 110000      R     ACALL   L?0824
0012 73                JMP     @A+DPTR
0013         ?C0633:
0013 010000      R     AJMP    ?C0002
0016 010000      R     AJMP    ?C0006
0019 010000      R     AJMP    ?C0009
001C 010000      R     AJMP    ?C0012
001F 010000      R     AJMP    ?C0015
0022 010000      R     AJMP    ?C0018
0025 010000      R     AJMP    ?C0021
0028 010000      R     AJMP    ?C0024
002B 010000      R     AJMP    ?C0027
002E 010000      R     AJMP    ?C0030
0031 010000      R     AJMP    ?C0033
0034 010000      R     AJMP    ?C0036
0037 010000      R     AJMP    ?C0039
003A 010000      R     AJMP    ?C0042
003D 010000      R     AJMP    ?C0045
0040 010000      R     AJMP    ?C0048
0043 010000      R     AJMP    ?C0051
0046 010000      R     AJMP    ?C0054
0049 010000      R     AJMP    ?C0057
004C 010000      R     AJMP    ?C0060
004F 010000      R     AJMP    ?C0063
0052 010000      R     AJMP    ?C0066
0055 010000      R     AJMP    ?C0069
C51 COMPILER V9.56.0.0   MONITOR_MCU                                                       07/18/2018 10:44:45 PAGE 26  

0058 010000      R     AJMP    ?C0072
005B 010000      R     AJMP    ?C0075
005E 010000      R     AJMP    ?C0078
0061 010000      R     AJMP    ?C0081
0064 010000      R     AJMP    ?C0084
0067 010000      R     AJMP    ?C0087
006A 010000      R     AJMP    ?C0090
006D 010000      R     AJMP    ?C0093
0070 010000      R     AJMP    ?C0096
0073 010000      R     AJMP    ?C0099
0076 010000      R     AJMP    ?C0102
0079 010000      R     AJMP    ?C0105
007C 010000      R     AJMP    ?C0108
007F 010000      R     AJMP    ?C0111
0082 010000      R     AJMP    ?C0114
0085 010000      R     AJMP    ?C0117
0088 010000      R     AJMP    ?C0120
008B 010000      R     AJMP    ?C0123
008E 010000      R     AJMP    ?C0126
0091 010000      R     AJMP    ?C0129
0094 010000      R     AJMP    ?C0132
0097 010000      R     AJMP    ?C0135
009A 010000      R     AJMP    ?C0138
009D 010000      R     AJMP    ?C0141
00A0 010000      R     AJMP    ?C0144
00A3 010000      R     AJMP    ?C0147
00A6 010000      R     AJMP    ?C0150
00A9 010000      R     AJMP    ?C0153
00AC 010000      R     AJMP    ?C0156
00AF 010000      R     AJMP    ?C0159
00B2 010000      R     AJMP    ?C0162
00B5 010000      R     AJMP    ?C0165
00B8 010000      R     AJMP    ?C0168
00BB 010000      R     AJMP    ?C0171
00BE 010000      R     AJMP    ?C0174
00C1 010000      R     AJMP    ?C0177
00C4 010000      R     AJMP    ?C0180
00C7 010000      R     AJMP    ?C0183
00CA 010000      R     AJMP    ?C0186
00CD 010000      R     AJMP    ?C0189
00D0 010000      R     AJMP    ?C0192
00D3 010000      R     AJMP    ?C0195
00D6 010000      R     AJMP    ?C0198
00D9 010000      R     AJMP    ?C0201
00DC 010000      R     AJMP    ?C0204
00DF 010000      R     AJMP    ?C0207
00E2 010000      R     AJMP    ?C0210
00E5 010000      R     AJMP    ?C0213
00E8 010000      R     AJMP    ?C0216
00EB 010000      R     AJMP    ?C0219
00EE 010000      R     AJMP    ?C0222
00F1 010000      R     AJMP    ?C0225
00F4 010000      R     AJMP    ?C0228
00F7 010000      R     AJMP    ?C0231
00FA 010000      R     AJMP    ?C0234
00FD 010000      R     AJMP    ?C0237
0100 010000      R     AJMP    ?C0240
0103 010000      R     AJMP    ?C0243
0106 010000      R     AJMP    ?C0246
0109 010000      R     AJMP    ?C0249
010C 010000      R     AJMP    ?C0252
010F 010000      R     AJMP    ?C0255
C51 COMPILER V9.56.0.0   MONITOR_MCU                                                       07/18/2018 10:44:45 PAGE 27  

0112 010000      R     AJMP    ?C0258
0115 010000      R     AJMP    ?C0261
0118 010000      R     AJMP    ?C0264
011B 010000      R     AJMP    ?C0267
011E 010000      R     AJMP    ?C0270
0121 010000      R     AJMP    ?C0273
0124 010000      R     AJMP    ?C0276
0127 010000      R     AJMP    ?C0279
012A 010000      R     AJMP    ?C0282
012D 010000      R     AJMP    ?C0285
0130 010000      R     AJMP    ?C0288
0133 010000      R     AJMP    ?C0291
0136 010000      R     AJMP    ?C0294
0139 010000      R     AJMP    ?C0297
013C 010000      R     AJMP    ?C0300
013F 010000      R     AJMP    ?C0303
0142 010000      R     AJMP    ?C0306
0145 010000      R     AJMP    ?C0309
0148 010000      R     AJMP    ?C0312
014B 010000      R     AJMP    ?C0315
014E 010000      R     AJMP    ?C0318
0151 010000      R     AJMP    ?C0321
0154 010000      R     AJMP    ?C0324
0157 010000      R     AJMP    ?C0327
015A 010000      R     AJMP    ?C0330
015D 010000      R     AJMP    ?C0333
0160 010000      R     AJMP    ?C0336
0163 010000      R     AJMP    ?C0339
0166 010000      R     AJMP    ?C0342
0169 010000      R     AJMP    ?C0345
016C 010000      R     AJMP    ?C0348
016F 010000      R     AJMP    ?C0351
0172 010000      R     AJMP    ?C0354
0175 010000      R     AJMP    ?C0357
0178 010000      R     AJMP    ?C0360
017B 010000      R     AJMP    ?C0363
017E 010000      R     AJMP    ?C0366
0181 010000      R     AJMP    ?C0369
0184 010000      R     AJMP    ?C0372
0187 010000      R     AJMP    ?C0375
018A 010000      R     AJMP    ?C0378
018D 010000      R     AJMP    ?C0381
0190 010000      R     AJMP    ?C0384
                                           ; SOURCE LINE # 79
0193         ?C0002:
0193 8D80              MOV     SFR_80h,R5
0195 7F00              MOV     R7,#00H
0197 300048            JNB     echo,?C0642
019A AF80              MOV     R7,SFR_80h
019C         ?C0003:
019C 22                RET     
                                           ; SOURCE LINE # 80
019D         ?C0006:
019D 8D81              MOV     SFR_81h,R5
019F 7F00              MOV     R7,#00H
01A1 300002            JNB     echo,?C0007
01A4 AF81              MOV     R7,SFR_81h
01A6         ?C0007:
01A6         ?C0636:
01A6 22                RET     
                                           ; SOURCE LINE # 81
01A7         ?C0009:
C51 COMPILER V9.56.0.0   MONITOR_MCU                                                       07/18/2018 10:44:45 PAGE 28  

01A7 8D82              MOV     DPL,R5
01A9 7F00              MOV     R7,#00H
01AB 300002            JNB     echo,?C0010
01AE AF82              MOV     R7,DPL
01B0         ?C0010:
01B0         ?C0637:
01B0 22                RET     
                                           ; SOURCE LINE # 82
01B1         ?C0012:
01B1 8D83              MOV     DPH,R5
01B3 7F00              MOV     R7,#00H
01B5 300002            JNB     echo,?C0013
01B8 AF83              MOV     R7,DPH
01BA         ?C0013:
01BA         ?C0638:
01BA 22                RET     
                                           ; SOURCE LINE # 83
01BB         ?C0015:
01BB 8D84              MOV     SFR_84h,R5
01BD 7F00              MOV     R7,#00H
01BF 300002            JNB     echo,?C0016
01C2 AF84              MOV     R7,SFR_84h
01C4         ?C0016:
01C4         ?C0639:
01C4 22                RET     
                                           ; SOURCE LINE # 84
01C5         ?C0018:
01C5 8D85              MOV     SFR_85h,R5
01C7 7F00              MOV     R7,#00H
01C9 300002            JNB     echo,?C0019
01CC AF85              MOV     R7,SFR_85h
01CE         ?C0019:
01CE         ?C0640:
01CE 22                RET     
                                           ; SOURCE LINE # 85
01CF         ?C0021:
01CF 8D86              MOV     SFR_86h,R5
01D1 7F00              MOV     R7,#00H
01D3 300002            JNB     echo,?C0022
01D6 AF86              MOV     R7,SFR_86h
01D8         ?C0022:
01D8         ?C0641:
01D8 22                RET     
                                           ; SOURCE LINE # 86
01D9         ?C0024:
01D9 8D87              MOV     SFR_87h,R5
01DB 7F00              MOV     R7,#00H
01DD 300002            JNB     echo,?C0025
01E0 AF87              MOV     R7,SFR_87h
01E2         ?C0025:
01E2         ?C0642:
01E2 22                RET     
                                           ; SOURCE LINE # 87
01E3         ?C0027:
01E3 8D88              MOV     SFR_88h,R5
01E5 7F00              MOV     R7,#00H
01E7 300002            JNB     echo,?C0028
01EA AF88              MOV     R7,SFR_88h
01EC         ?C0028:
01EC         ?C0643:
01EC 22                RET     
                                           ; SOURCE LINE # 88
C51 COMPILER V9.56.0.0   MONITOR_MCU                                                       07/18/2018 10:44:45 PAGE 29  

01ED         ?C0030:
01ED 8D89              MOV     SFR_89h,R5
01EF 7F00              MOV     R7,#00H
01F1 300002            JNB     echo,?C0031
01F4 AF89              MOV     R7,SFR_89h
01F6         ?C0031:
01F6         ?C0644:
01F6 22                RET     
                                           ; SOURCE LINE # 89
01F7         ?C0033:
01F7 8D8A              MOV     SFR_8ah,R5
01F9 7F00              MOV     R7,#00H
01FB 300002            JNB     echo,?C0034
01FE AF8A              MOV     R7,SFR_8ah
0200         ?C0034:
0200         ?C0645:
0200 22                RET     
                                           ; SOURCE LINE # 90
0201         ?C0036:
0201 8D8B              MOV     SFR_8bh,R5
0203 7F00              MOV     R7,#00H
0205 300002            JNB     echo,?C0037
0208 AF8B              MOV     R7,SFR_8bh
020A         ?C0037:
020A         ?C0646:
020A 22                RET     
                                           ; SOURCE LINE # 91
020B         ?C0039:
020B 8D8C              MOV     SFR_8ch,R5
020D 7F00              MOV     R7,#00H
020F 300002            JNB     echo,?C0040
0212 AF8C              MOV     R7,SFR_8ch
0214         ?C0040:
0214         ?C0647:
0214 22                RET     
                                           ; SOURCE LINE # 92
0215         ?C0042:
0215 8D8D              MOV     SFR_8dh,R5
0217 7F00              MOV     R7,#00H
0219 300002            JNB     echo,?C0043
021C AF8D              MOV     R7,SFR_8dh
021E         ?C0043:
021E         ?C0648:
021E 22                RET     
                                           ; SOURCE LINE # 93
021F         ?C0045:
021F 8D8E              MOV     SFR_8eh,R5
0221 7F00              MOV     R7,#00H
0223 300002            JNB     echo,?C0046
0226 AF8E              MOV     R7,SFR_8eh
0228         ?C0046:
0228         ?C0649:
0228 22                RET     
                                           ; SOURCE LINE # 94
0229         ?C0048:
0229 8D8F              MOV     SFR_8fh,R5
022B 7F00              MOV     R7,#00H
022D 300002            JNB     echo,?C0049
0230 AF8F              MOV     R7,SFR_8fh
0232         ?C0049:
0232         ?C0650:
0232 22                RET     
C51 COMPILER V9.56.0.0   MONITOR_MCU                                                       07/18/2018 10:44:45 PAGE 30  

                                           ; SOURCE LINE # 96
0233         ?C0051:
0233 8D90              MOV     SFR_90h,R5
0235 7F00              MOV     R7,#00H
0237 300002            JNB     echo,?C0052
023A AF90              MOV     R7,SFR_90h
023C         ?C0052:
023C         ?C0651:
023C 22                RET     
                                           ; SOURCE LINE # 97
023D         ?C0054:
023D 8D91              MOV     SFR_91h,R5
023F 7F00              MOV     R7,#00H
0241 300002            JNB     echo,?C0055
0244 AF91              MOV     R7,SFR_91h
0246         ?C0055:
0246         ?C0652:
0246 22                RET     
                                           ; SOURCE LINE # 98
0247         ?C0057:
0247 8D92              MOV     SFR_92h,R5
0249 7F00              MOV     R7,#00H
024B 300002            JNB     echo,?C0058
024E AF92              MOV     R7,SFR_92h
0250         ?C0058:
0250         ?C0653:
0250 22                RET     
                                           ; SOURCE LINE # 99
0251         ?C0060:
0251 8D93              MOV     SFR_93h,R5
0253 7F00              MOV     R7,#00H
0255 300002            JNB     echo,?C0061
0258 AF93              MOV     R7,SFR_93h
025A         ?C0061:
025A         ?C0654:
025A 22                RET     
                                           ; SOURCE LINE # 100
025B         ?C0063:
025B 8D94              MOV     SFR_94h,R5
025D 7F00              MOV     R7,#00H
025F 300002            JNB     echo,?C0064
0262 AF94              MOV     R7,SFR_94h
0264         ?C0064:
0264         ?C0655:
0264 22                RET     
                                           ; SOURCE LINE # 101
0265         ?C0066:
0265 8D95              MOV     SFR_95h,R5
0267 7F00              MOV     R7,#00H
0269 300002            JNB     echo,?C0067
026C AF95              MOV     R7,SFR_95h
026E         ?C0067:
026E         ?C0656:
026E 22                RET     
                                           ; SOURCE LINE # 102
026F         ?C0069:
026F 8D96              MOV     SFR_96h,R5
0271 7F00              MOV     R7,#00H
0273 300002            JNB     echo,?C0070
0276 AF96              MOV     R7,SFR_96h
0278         ?C0070:
0278         ?C0657:
C51 COMPILER V9.56.0.0   MONITOR_MCU                                                       07/18/2018 10:44:45 PAGE 31  

0278 22                RET     
                                           ; SOURCE LINE # 103
0279         ?C0072:
0279 8D97              MOV     SFR_97h,R5
027B 7F00              MOV     R7,#00H
027D 300002            JNB     echo,?C0073
0280 AF97              MOV     R7,SFR_97h
0282         ?C0073:
0282         ?C0658:
0282 22                RET     
                                           ; SOURCE LINE # 104
0283         ?C0075:
0283 8D98              MOV     SFR_98h,R5
0285 7F00              MOV     R7,#00H
0287 300002            JNB     echo,?C0076
028A AF98              MOV     R7,SFR_98h
028C         ?C0076:
028C         ?C0659:
028C 22                RET     
                                           ; SOURCE LINE # 105
028D         ?C0078:
028D 8D99              MOV     SFR_99h,R5
028F 7F00              MOV     R7,#00H
0291 300002            JNB     echo,?C0079
0294 AF99              MOV     R7,SFR_99h
0296         ?C0079:
0296         ?C0660:
0296 22                RET     
                                           ; SOURCE LINE # 106
0297         ?C0081:
0297 8D9A              MOV     SFR_9ah,R5
0299 7F00              MOV     R7,#00H
029B 300002            JNB     echo,?C0082
029E AF9A              MOV     R7,SFR_9ah
02A0         ?C0082:
02A0         ?C0661:
02A0 22                RET     
                                           ; SOURCE LINE # 107
02A1         ?C0084:
02A1 8D9B              MOV     SFR_9bh,R5
02A3 7F00              MOV     R7,#00H
02A5 300002            JNB     echo,?C0085
02A8 AF9B              MOV     R7,SFR_9bh
02AA         ?C0085:
02AA         ?C0662:
02AA 22                RET     
                                           ; SOURCE LINE # 108
02AB         ?C0087:
02AB 8D9C              MOV     SFR_9ch,R5
02AD 7F00              MOV     R7,#00H
02AF 300002            JNB     echo,?C0088
02B2 AF9C              MOV     R7,SFR_9ch
02B4         ?C0088:
02B4         ?C0663:
02B4 22                RET     
                                           ; SOURCE LINE # 109
02B5         ?C0090:
02B5 8D9D              MOV     SFR_9dh,R5
02B7 7F00              MOV     R7,#00H
02B9 300002            JNB     echo,?C0091
02BC AF9D              MOV     R7,SFR_9dh
02BE         ?C0091:
C51 COMPILER V9.56.0.0   MONITOR_MCU                                                       07/18/2018 10:44:45 PAGE 32  

02BE         ?C0664:
02BE 22                RET     
                                           ; SOURCE LINE # 110
02BF         ?C0093:
02BF 8D9E              MOV     SFR_9eh,R5
02C1 7F00              MOV     R7,#00H
02C3 300002            JNB     echo,?C0094
02C6 AF9E              MOV     R7,SFR_9eh
02C8         ?C0094:
02C8         ?C0665:
02C8 22                RET     
                                           ; SOURCE LINE # 111
02C9         ?C0096:
02C9 8D9F              MOV     SFR_9fh,R5
02CB 7F00              MOV     R7,#00H
02CD 300002            JNB     echo,?C0097
02D0 AF9F              MOV     R7,SFR_9fh
02D2         ?C0097:
02D2         ?C0666:
02D2 22                RET     
                                           ; SOURCE LINE # 113
02D3         ?C0099:
02D3 8DA0              MOV     SFR_a0h,R5
02D5 7F00              MOV     R7,#00H
02D7 300002            JNB     echo,?C0100
02DA AFA0              MOV     R7,SFR_a0h
02DC         ?C0100:
02DC         ?C0667:
02DC 22                RET     
                                           ; SOURCE LINE # 114
02DD         ?C0102:
02DD 8DA1              MOV     SFR_a1h,R5
02DF 7F00              MOV     R7,#00H
02E1 300002            JNB     echo,?C0103
02E4 AFA1              MOV     R7,SFR_a1h
02E6         ?C0103:
02E6         ?C0668:
02E6 22                RET     
                                           ; SOURCE LINE # 115
02E7         ?C0105:
02E7 8DA2              MOV     SFR_a2h,R5
02E9 7F00              MOV     R7,#00H
02EB 300002            JNB     echo,?C0106
02EE AFA2              MOV     R7,SFR_a2h
02F0         ?C0106:
02F0         ?C0669:
02F0 22                RET     
                                           ; SOURCE LINE # 116
02F1         ?C0108:
02F1 8DA3              MOV     SFR_a3h,R5
02F3 7F00              MOV     R7,#00H
02F5 300002            JNB     echo,?C0109
02F8 AFA3              MOV     R7,SFR_a3h
02FA         ?C0109:
02FA         ?C0670:
02FA 22                RET     
                                           ; SOURCE LINE # 117
02FB         ?C0111:
02FB 8DA4              MOV     SFR_a4h,R5
02FD 7F00              MOV     R7,#00H
02FF 300002            JNB     echo,?C0112
0302 AFA4              MOV     R7,SFR_a4h
C51 COMPILER V9.56.0.0   MONITOR_MCU                                                       07/18/2018 10:44:45 PAGE 33  

0304         ?C0112:
0304         ?C0671:
0304 22                RET     
                                           ; SOURCE LINE # 118
0305         ?C0114:
0305 8DA5              MOV     SFR_a5h,R5
0307 7F00              MOV     R7,#00H
0309 300002            JNB     echo,?C0115
030C AFA5              MOV     R7,SFR_a5h
030E         ?C0115:
030E         ?C0672:
030E 22                RET     
                                           ; SOURCE LINE # 119
030F         ?C0117:
030F 8DA6              MOV     SFR_a6h,R5
0311 7F00              MOV     R7,#00H
0313 300002            JNB     echo,?C0118
0316 AFA6              MOV     R7,SFR_a6h
0318         ?C0118:
0318         ?C0673:
0318 22                RET     
                                           ; SOURCE LINE # 120
0319         ?C0120:
0319 8DA7              MOV     SFR_a7h,R5
031B 7F00              MOV     R7,#00H
031D 300002            JNB     echo,?C0121
0320 AFA7              MOV     R7,SFR_a7h
0322         ?C0121:
0322         ?C0674:
0322 22                RET     
                                           ; SOURCE LINE # 121
0323         ?C0123:
0323 8DA8              MOV     SFR_a8h,R5
0325 7F00              MOV     R7,#00H
0327 300002            JNB     echo,?C0124
032A AFA8              MOV     R7,SFR_a8h
032C         ?C0124:
032C         ?C0675:
032C 22                RET     
                                           ; SOURCE LINE # 122
032D         ?C0126:
032D 8DA9              MOV     SFR_a9h,R5
032F 7F00              MOV     R7,#00H
0331 300002            JNB     echo,?C0127
0334 AFA9              MOV     R7,SFR_a9h
0336         ?C0127:
0336         ?C0676:
0336 22                RET     
                                           ; SOURCE LINE # 123
0337         ?C0129:
0337 8DAA              MOV     SFR_aah,R5
0339 7F00              MOV     R7,#00H
033B 300002            JNB     echo,?C0130
033E AFAA              MOV     R7,SFR_aah
0340         ?C0130:
0340         ?C0677:
0340 22                RET     
                                           ; SOURCE LINE # 124
0341         ?C0132:
0341 8DAB              MOV     SFR_abh,R5
0343 7F00              MOV     R7,#00H
0345 300002            JNB     echo,?C0133
C51 COMPILER V9.56.0.0   MONITOR_MCU                                                       07/18/2018 10:44:45 PAGE 34  

0348 AFAB              MOV     R7,SFR_abh
034A         ?C0133:
034A         ?C0678:
034A 22                RET     
                                           ; SOURCE LINE # 125
034B         ?C0135:
034B 8DAC              MOV     SFR_ach,R5
034D 7F00              MOV     R7,#00H
034F 300002            JNB     echo,?C0136
0352 AFAC              MOV     R7,SFR_ach
0354         ?C0136:
0354         ?C0679:
0354 22                RET     
                                           ; SOURCE LINE # 126
0355         ?C0138:
0355 8DAD              MOV     SFR_adh,R5
0357 7F00              MOV     R7,#00H
0359 300002            JNB     echo,?C0139
035C AFAD              MOV     R7,SFR_adh
035E         ?C0139:
035E         ?C0680:
035E 22                RET     
                                           ; SOURCE LINE # 127
035F         ?C0141:
035F 8DAE              MOV     SFR_aeh,R5
0361 7F00              MOV     R7,#00H
0363 300002            JNB     echo,?C0142
0366 AFAE              MOV     R7,SFR_aeh
0368         ?C0142:
0368         ?C0681:
0368 22                RET     
                                           ; SOURCE LINE # 128
0369         ?C0144:
0369 8DAF              MOV     SFR_afh,R5
036B 7F00              MOV     R7,#00H
036D 300002            JNB     echo,?C0145
0370 AFAF              MOV     R7,SFR_afh
0372         ?C0145:
0372         ?C0682:
0372 22                RET     
                                           ; SOURCE LINE # 130
0373         ?C0147:
0373 8DB0              MOV     SFR_b0h,R5
0375 7F00              MOV     R7,#00H
0377 300002            JNB     echo,?C0148
037A AFB0              MOV     R7,SFR_b0h
037C         ?C0148:
037C         ?C0683:
037C 22                RET     
                                           ; SOURCE LINE # 131
037D         ?C0150:
037D 8DB1              MOV     SFR_b1h,R5
037F 7F00              MOV     R7,#00H
0381 300002            JNB     echo,?C0151
0384 AFB1              MOV     R7,SFR_b1h
0386         ?C0151:
0386         ?C0684:
0386 22                RET     
                                           ; SOURCE LINE # 132
0387         ?C0153:
0387 8DB2              MOV     SFR_b2h,R5
0389 7F00              MOV     R7,#00H
C51 COMPILER V9.56.0.0   MONITOR_MCU                                                       07/18/2018 10:44:45 PAGE 35  

038B 300002            JNB     echo,?C0154
038E AFB2              MOV     R7,SFR_b2h
0390         ?C0154:
0390         ?C0685:
0390 22                RET     
                                           ; SOURCE LINE # 133
0391         ?C0156:
0391 8DB3              MOV     SFR_b3h,R5
0393 7F00              MOV     R7,#00H
0395 300002            JNB     echo,?C0157
0398 AFB3              MOV     R7,SFR_b3h
039A         ?C0157:
039A         ?C0686:
039A 22                RET     
                                           ; SOURCE LINE # 134
039B         ?C0159:
039B 8DB4              MOV     SFR_b4h,R5
039D 7F00              MOV     R7,#00H
039F 300002            JNB     echo,?C0160
03A2 AFB4              MOV     R7,SFR_b4h
03A4         ?C0160:
03A4         ?C0687:
03A4 22                RET     
                                           ; SOURCE LINE # 135
03A5         ?C0162:
03A5 8DB5              MOV     SFR_b5h,R5
03A7 7F00              MOV     R7,#00H
03A9 300002            JNB     echo,?C0163
03AC AFB5              MOV     R7,SFR_b5h
03AE         ?C0163:
03AE         ?C0688:
03AE 22                RET     
                                           ; SOURCE LINE # 136
03AF         ?C0165:
03AF 8DB6              MOV     SFR_b6h,R5
03B1 7F00              MOV     R7,#00H
03B3 300002            JNB     echo,?C0166
03B6 AFB6              MOV     R7,SFR_b6h
03B8         ?C0166:
03B8         ?C0689:
03B8 22                RET     
                                           ; SOURCE LINE # 137
03B9         ?C0168:
03B9 8DB7              MOV     SFR_b7h,R5
03BB 7F00              MOV     R7,#00H
03BD 300002            JNB     echo,?C0169
03C0 AFB7              MOV     R7,SFR_b7h
03C2         ?C0169:
03C2         ?C0690:
03C2 22                RET     
                                           ; SOURCE LINE # 138
03C3         ?C0171:
03C3 8DB8              MOV     SFR_b8h,R5
03C5 7F00              MOV     R7,#00H
03C7 300002            JNB     echo,?C0172
03CA AFB8              MOV     R7,SFR_b8h
03CC         ?C0172:
03CC         ?C0691:
03CC 22                RET     
                                           ; SOURCE LINE # 139
03CD         ?C0174:
03CD 8DB9              MOV     SFR_b9h,R5
C51 COMPILER V9.56.0.0   MONITOR_MCU                                                       07/18/2018 10:44:45 PAGE 36  

03CF 7F00              MOV     R7,#00H
03D1 300002            JNB     echo,?C0175
03D4 AFB9              MOV     R7,SFR_b9h
03D6         ?C0175:
03D6         ?C0692:
03D6 22                RET     
                                           ; SOURCE LINE # 140
03D7         ?C0177:
03D7 8DBA              MOV     SFR_bah,R5
03D9 7F00              MOV     R7,#00H
03DB 300002            JNB     echo,?C0178
03DE AFBA              MOV     R7,SFR_bah
03E0         ?C0178:
03E0         ?C0693:
03E0 22                RET     
                                           ; SOURCE LINE # 141
03E1         ?C0180:
03E1 8DBB              MOV     SFR_bbh,R5
03E3 7F00              MOV     R7,#00H
03E5 300002            JNB     echo,?C0181
03E8 AFBB              MOV     R7,SFR_bbh
03EA         ?C0181:
03EA         ?C0694:
03EA 22                RET     
                                           ; SOURCE LINE # 142
03EB         ?C0183:
03EB 8DBC              MOV     SFR_bch,R5
03ED 7F00              MOV     R7,#00H
03EF 300002            JNB     echo,?C0184
03F2 AFBC              MOV     R7,SFR_bch
03F4         ?C0184:
03F4         ?C0695:
03F4 22                RET     
                                           ; SOURCE LINE # 143
03F5         ?C0186:
03F5 8DBD              MOV     SFR_bdh,R5
03F7 7F00              MOV     R7,#00H
03F9 300002            JNB     echo,?C0187
03FC AFBD              MOV     R7,SFR_bdh
03FE         ?C0187:
03FE         ?C0696:
03FE 22                RET     
                                           ; SOURCE LINE # 144
03FF         ?C0189:
03FF 8DBE              MOV     SFR_beh,R5
0401 7F00              MOV     R7,#00H
0403 300002            JNB     echo,?C0190
0406 AFBE              MOV     R7,SFR_beh
0408         ?C0190:
0408         ?C0697:
0408 22                RET     
                                           ; SOURCE LINE # 145
0409         ?C0192:
0409 8DBF              MOV     SFR_bfh,R5
040B 7F00              MOV     R7,#00H
040D 300002            JNB     echo,?C0193
0410 AFBF              MOV     R7,SFR_bfh
0412         ?C0193:
0412         ?C0698:
0412 22                RET     
                                           ; SOURCE LINE # 147
0413         ?C0195:
C51 COMPILER V9.56.0.0   MONITOR_MCU                                                       07/18/2018 10:44:45 PAGE 37  

0413 8DC0              MOV     SFR_c0h,R5
0415 7F00              MOV     R7,#00H
0417 300002            JNB     echo,?C0196
041A AFC0              MOV     R7,SFR_c0h
041C         ?C0196:
041C         ?C0699:
041C 22                RET     
                                           ; SOURCE LINE # 148
041D         ?C0198:
041D 8DC1              MOV     SFR_c1h,R5
041F 7F00              MOV     R7,#00H
0421 300002            JNB     echo,?C0199
0424 AFC1              MOV     R7,SFR_c1h
0426         ?C0199:
0426         ?C0700:
0426 22                RET     
                                           ; SOURCE LINE # 149
0427         ?C0201:
0427 8DC2              MOV     SFR_c2h,R5
0429 7F00              MOV     R7,#00H
042B 300002            JNB     echo,?C0202
042E AFC2              MOV     R7,SFR_c2h
0430         ?C0202:
0430         ?C0701:
0430 22                RET     
                                           ; SOURCE LINE # 150
0431         ?C0204:
0431 8DC3              MOV     SFR_c3h,R5
0433 7F00              MOV     R7,#00H
0435 300002            JNB     echo,?C0205
0438 AFC3              MOV     R7,SFR_c3h
043A         ?C0205:
043A         ?C0702:
043A 22                RET     
                                           ; SOURCE LINE # 151
043B         ?C0207:
043B 8DC4              MOV     SFR_c4h,R5
043D 7F00              MOV     R7,#00H
043F 300002            JNB     echo,?C0208
0442 AFC4              MOV     R7,SFR_c4h
0444         ?C0208:
0444         ?C0703:
0444 22                RET     
                                           ; SOURCE LINE # 152
0445         ?C0210:
0445 8DC5              MOV     SFR_c5h,R5
0447 7F00              MOV     R7,#00H
0449 300002            JNB     echo,?C0211
044C AFC5              MOV     R7,SFR_c5h
044E         ?C0211:
044E         ?C0704:
044E 22                RET     
                                           ; SOURCE LINE # 153
044F         ?C0213:
044F 8DC6              MOV     SFR_c6h,R5
0451 7F00              MOV     R7,#00H
0453 300002            JNB     echo,?C0214
0456 AFC6              MOV     R7,SFR_c6h
0458         ?C0214:
0458         ?C0705:
0458 22                RET     
                                           ; SOURCE LINE # 154
C51 COMPILER V9.56.0.0   MONITOR_MCU                                                       07/18/2018 10:44:45 PAGE 38  

0459         ?C0216:
0459 8DC7              MOV     SFR_c7h,R5
045B 7F00              MOV     R7,#00H
045D 300002            JNB     echo,?C0217
0460 AFC7              MOV     R7,SFR_c7h
0462         ?C0217:
0462         ?C0706:
0462 22                RET     
                                           ; SOURCE LINE # 155
0463         ?C0219:
0463 8DC8              MOV     SFR_c8h,R5
0465 7F00              MOV     R7,#00H
0467 300002            JNB     echo,?C0220
046A AFC8              MOV     R7,SFR_c8h
046C         ?C0220:
046C         ?C0707:
046C 22                RET     
                                           ; SOURCE LINE # 156
046D         ?C0222:
046D 8DC9              MOV     SFR_c9h,R5
046F 7F00              MOV     R7,#00H
0471 300002            JNB     echo,?C0223
0474 AFC9              MOV     R7,SFR_c9h
0476         ?C0223:
0476         ?C0708:
0476 22                RET     
                                           ; SOURCE LINE # 157
0477         ?C0225:
0477 8DCA              MOV     SFR_cah,R5
0479 7F00              MOV     R7,#00H
047B 300002            JNB     echo,?C0226
047E AFCA              MOV     R7,SFR_cah
0480         ?C0226:
0480         ?C0709:
0480 22                RET     
                                           ; SOURCE LINE # 158
0481         ?C0228:
0481 8DCB              MOV     SFR_cbh,R5
0483 7F00              MOV     R7,#00H
0485 300002            JNB     echo,?C0229
0488 AFCB              MOV     R7,SFR_cbh
048A         ?C0229:
048A         ?C0710:
048A 22                RET     
                                           ; SOURCE LINE # 159
048B         ?C0231:
048B 8DCC              MOV     SFR_cch,R5
048D 7F00              MOV     R7,#00H
048F 300002            JNB     echo,?C0232
0492 AFCC              MOV     R7,SFR_cch
0494         ?C0232:
0494         ?C0711:
0494 22                RET     
                                           ; SOURCE LINE # 160
0495         ?C0234:
0495 8DCD              MOV     SFR_cdh,R5
0497 7F00              MOV     R7,#00H
0499 300002            JNB     echo,?C0235
049C AFCD              MOV     R7,SFR_cdh
049E         ?C0235:
049E         ?C0712:
049E 22                RET     
C51 COMPILER V9.56.0.0   MONITOR_MCU                                                       07/18/2018 10:44:45 PAGE 39  

                                           ; SOURCE LINE # 161
049F         ?C0237:
049F 8DCE              MOV     SFR_ceh,R5
04A1 7F00              MOV     R7,#00H
04A3 300002            JNB     echo,?C0238
04A6 AFCE              MOV     R7,SFR_ceh
04A8         ?C0238:
04A8         ?C0713:
04A8 22                RET     
                                           ; SOURCE LINE # 162
04A9         ?C0240:
04A9 8DCF              MOV     SFR_cfh,R5
04AB 7F00              MOV     R7,#00H
04AD 300002            JNB     echo,?C0241
04B0 AFCF              MOV     R7,SFR_cfh
04B2         ?C0241:
04B2         ?C0714:
04B2 22                RET     
                                           ; SOURCE LINE # 164
04B3         ?C0243:
04B3 8DD0              MOV     SFR_d0h,R5
04B5 7F00              MOV     R7,#00H
04B7 300002            JNB     echo,?C0244
04BA AFD0              MOV     R7,SFR_d0h
04BC         ?C0244:
04BC         ?C0715:
04BC 22                RET     
                                           ; SOURCE LINE # 165
04BD         ?C0246:
04BD 8DD1              MOV     SFR_d1h,R5
04BF 7F00              MOV     R7,#00H
04C1 300002            JNB     echo,?C0247
04C4 AFD1              MOV     R7,SFR_d1h
04C6         ?C0247:
04C6         ?C0716:
04C6 22                RET     
                                           ; SOURCE LINE # 166
04C7         ?C0249:
04C7 8DD2              MOV     SFR_d2h,R5
04C9 7F00              MOV     R7,#00H
04CB 300002            JNB     echo,?C0250
04CE AFD2              MOV     R7,SFR_d2h
04D0         ?C0250:
04D0         ?C0717:
04D0 22                RET     
                                           ; SOURCE LINE # 167
04D1         ?C0252:
04D1 8DD3              MOV     SFR_d3h,R5
04D3 7F00              MOV     R7,#00H
04D5 300002            JNB     echo,?C0253
04D8 AFD3              MOV     R7,SFR_d3h
04DA         ?C0253:
04DA         ?C0718:
04DA 22                RET     
                                           ; SOURCE LINE # 168
04DB         ?C0255:
04DB 8DD4              MOV     SFR_d4h,R5
04DD 7F00              MOV     R7,#00H
04DF 300002            JNB     echo,?C0256
04E2 AFD4              MOV     R7,SFR_d4h
04E4         ?C0256:
04E4         ?C0719:
C51 COMPILER V9.56.0.0   MONITOR_MCU                                                       07/18/2018 10:44:45 PAGE 40  

04E4 22                RET     
                                           ; SOURCE LINE # 169
04E5         ?C0258:
04E5 8DD5              MOV     SFR_d5h,R5
04E7 7F00              MOV     R7,#00H
04E9 300002            JNB     echo,?C0259
04EC AFD5              MOV     R7,SFR_d5h
04EE         ?C0259:
04EE         ?C0720:
04EE 22                RET     
                                           ; SOURCE LINE # 170
04EF         ?C0261:
04EF 8DD6              MOV     SFR_d6h,R5
04F1 7F00              MOV     R7,#00H
04F3 300002            JNB     echo,?C0262
04F6 AFD6              MOV     R7,SFR_d6h
04F8         ?C0262:
04F8         ?C0721:
04F8 22                RET     
                                           ; SOURCE LINE # 171
04F9         ?C0264:
04F9 8DD7              MOV     SFR_d7h,R5
04FB 7F00              MOV     R7,#00H
04FD 300002            JNB     echo,?C0265
0500 AFD7              MOV     R7,SFR_d7h
0502         ?C0265:
0502         ?C0722:
0502 22                RET     
                                           ; SOURCE LINE # 172
0503         ?C0267:
0503 75EBAA            MOV     SFR_ebh,#0AAH
                                           ; SOURCE LINE # 173
0506 75EB55            MOV     SFR_ebh,#055H
                                           ; SOURCE LINE # 174
0509 8DD8              MOV     SFR_d8h,R5
050B 7F00              MOV     R7,#00H
050D 300002            JNB     echo,?C0268
0510 AFD8              MOV     R7,SFR_d8h
0512         ?C0268:
0512         ?C0723:
0512 22                RET     
                                           ; SOURCE LINE # 175
0513         ?C0270:
0513 8DD9              MOV     SFR_d9h,R5
0515 7F00              MOV     R7,#00H
0517 300002            JNB     echo,?C0271
051A AFD9              MOV     R7,SFR_d9h
051C         ?C0271:
051C         ?C0724:
051C 22                RET     
                                           ; SOURCE LINE # 176
051D         ?C0273:
051D 8DDA              MOV     SFR_dah,R5
051F 7F00              MOV     R7,#00H
0521 300002            JNB     echo,?C0274
0524 AFDA              MOV     R7,SFR_dah
0526         ?C0274:
0526         ?C0725:
0526 22                RET     
                                           ; SOURCE LINE # 177
0527         ?C0276:
0527 8DDB              MOV     SFR_dbh,R5
C51 COMPILER V9.56.0.0   MONITOR_MCU                                                       07/18/2018 10:44:45 PAGE 41  

0529 7F00              MOV     R7,#00H
052B 300002            JNB     echo,?C0277
052E AFDB              MOV     R7,SFR_dbh
0530         ?C0277:
0530         ?C0726:
0530 22                RET     
                                           ; SOURCE LINE # 178
0531         ?C0279:
0531 8DDC              MOV     SFR_dch,R5
0533 7F00              MOV     R7,#00H
0535 300002            JNB     echo,?C0280
0538 AFDC              MOV     R7,SFR_dch
053A         ?C0280:
053A         ?C0727:
053A 22                RET     
                                           ; SOURCE LINE # 179
053B         ?C0282:
053B 8DDD              MOV     SFR_ddh,R5
053D 7F00              MOV     R7,#00H
053F 300002            JNB     echo,?C0283
0542 AFDD              MOV     R7,SFR_ddh
0544         ?C0283:
0544         ?C0728:
0544 22                RET     
                                           ; SOURCE LINE # 180
0545         ?C0285:
0545 8DDE              MOV     SFR_deh,R5
0547 7F00              MOV     R7,#00H
0549 300002            JNB     echo,?C0286
054C AFDE              MOV     R7,SFR_deh
054E         ?C0286:
054E         ?C0729:
054E 22                RET     
                                           ; SOURCE LINE # 181
054F         ?C0288:
054F 8DDF              MOV     SFR_dfh,R5
0551 7F00              MOV     R7,#00H
0553 300002            JNB     echo,?C0289
0556 AFDF              MOV     R7,SFR_dfh
0558         ?C0289:
0558         ?C0730:
0558 22                RET     
                                           ; SOURCE LINE # 183
0559         ?C0291:
0559 ED                MOV     A,R5
055A 7F00              MOV     R7,#00H
055C 300001            JNB     echo,?C0292
055F FF                MOV     R7,A
0560         ?C0292:
0560         ?C0731:
0560 22                RET     
                                           ; SOURCE LINE # 184
0561         ?C0294:
0561 8DE1              MOV     SFR_e1h,R5
0563 7F00              MOV     R7,#00H
0565 300002            JNB     echo,?C0295
0568 AFE1              MOV     R7,SFR_e1h
056A         ?C0295:
056A         ?C0732:
056A 22                RET     
                                           ; SOURCE LINE # 185
056B         ?C0297:
C51 COMPILER V9.56.0.0   MONITOR_MCU                                                       07/18/2018 10:44:45 PAGE 42  

056B 8DE2              MOV     SFR_e2h,R5
056D 7F00              MOV     R7,#00H
056F 300002            JNB     echo,?C0298
0572 AFE2              MOV     R7,SFR_e2h
0574         ?C0298:
0574         ?C0733:
0574 22                RET     
                                           ; SOURCE LINE # 186
0575         ?C0300:
0575 8DE3              MOV     SFR_e3h,R5
0577 7F00              MOV     R7,#00H
0579 300002            JNB     echo,?C0301
057C AFE3              MOV     R7,SFR_e3h
057E         ?C0301:
057E         ?C0734:
057E 22                RET     
                                           ; SOURCE LINE # 187
057F         ?C0303:
057F 8DE4              MOV     SFR_e4h,R5
0581 7F00              MOV     R7,#00H
0583 300002            JNB     echo,?C0304
0586 AFE4              MOV     R7,SFR_e4h
0588         ?C0304:
0588         ?C0735:
0588 22                RET     
                                           ; SOURCE LINE # 188
0589         ?C0306:
0589 8DE5              MOV     SFR_e5h,R5
058B 7F00              MOV     R7,#00H
058D 300002            JNB     echo,?C0307
0590 AFE5              MOV     R7,SFR_e5h
0592         ?C0307:
0592         ?C0736:
0592 22                RET     
                                           ; SOURCE LINE # 189
0593         ?C0309:
0593 8DE6              MOV     SFR_e6h,R5
0595 7F00              MOV     R7,#00H
0597 300002            JNB     echo,?C0310
059A AFE6              MOV     R7,SFR_e6h
059C         ?C0310:
059C         ?C0737:
059C 22                RET     
                                           ; SOURCE LINE # 190
059D         ?C0312:
059D 8DE7              MOV     SFR_e7h,R5
059F 7F00              MOV     R7,#00H
05A1 300002            JNB     echo,?C0313
05A4 AFE7              MOV     R7,SFR_e7h
05A6         ?C0313:
05A6         ?C0738:
05A6 22                RET     
                                           ; SOURCE LINE # 191
05A7         ?C0315:
05A7 8DE8              MOV     SFR_e8h,R5
05A9 7F00              MOV     R7,#00H
05AB 300002            JNB     echo,?C0316
05AE AFE8              MOV     R7,SFR_e8h
05B0         ?C0316:
05B0         ?C0739:
05B0 22                RET     
                                           ; SOURCE LINE # 192
C51 COMPILER V9.56.0.0   MONITOR_MCU                                                       07/18/2018 10:44:45 PAGE 43  

05B1         ?C0318:
05B1 8DE9              MOV     SFR_e9h,R5
05B3 7F00              MOV     R7,#00H
05B5 300002            JNB     echo,?C0319
05B8 AFE9              MOV     R7,SFR_e9h
05BA         ?C0319:
05BA         ?C0740:
05BA 22                RET     
                                           ; SOURCE LINE # 193
05BB         ?C0321:
05BB 8DEA              MOV     SFR_eah,R5
05BD 7F00              MOV     R7,#00H
05BF 300002            JNB     echo,?C0322
05C2 AFEA              MOV     R7,SFR_eah
05C4         ?C0322:
05C4         ?C0741:
05C4 22                RET     
                                           ; SOURCE LINE # 194
05C5         ?C0324:
05C5 8DEB              MOV     SFR_ebh,R5
05C7 7F00              MOV     R7,#00H
05C9 300002            JNB     echo,?C0325
05CC AFEB              MOV     R7,SFR_ebh
05CE         ?C0325:
05CE         ?C0742:
05CE 22                RET     
                                           ; SOURCE LINE # 195
05CF         ?C0327:
05CF 8DEC              MOV     SFR_ech,R5
05D1 7F00              MOV     R7,#00H
05D3 300002            JNB     echo,?C0328
05D6 AFEC              MOV     R7,SFR_ech
05D8         ?C0328:
05D8         ?C0743:
05D8 22                RET     
                                           ; SOURCE LINE # 196
05D9         ?C0330:
05D9 8DED              MOV     SFR_edh,R5
05DB 7F00              MOV     R7,#00H
05DD 300002            JNB     echo,?C0331
05E0 AFED              MOV     R7,SFR_edh
05E2         ?C0331:
05E2         ?C0744:
05E2 22                RET     
                                           ; SOURCE LINE # 197
05E3         ?C0333:
05E3 8DEE              MOV     SFR_eeh,R5
05E5 7F00              MOV     R7,#00H
05E7 300002            JNB     echo,?C0334
05EA AFEE              MOV     R7,SFR_eeh
05EC         ?C0334:
05EC         ?C0745:
05EC 22                RET     
                                           ; SOURCE LINE # 198
05ED         ?C0336:
05ED 8DEF              MOV     SFR_efh,R5
05EF 7F00              MOV     R7,#00H
05F1 300002            JNB     echo,?C0337
05F4 AFEF              MOV     R7,SFR_efh
05F6         ?C0337:
05F6         ?C0746:
05F6 22                RET     
C51 COMPILER V9.56.0.0   MONITOR_MCU                                                       07/18/2018 10:44:45 PAGE 44  

                                           ; SOURCE LINE # 200
05F7         ?C0339:
05F7 8DF0              MOV     B,R5
05F9 7F00              MOV     R7,#00H
05FB 300002            JNB     echo,?C0340
05FE AFF0              MOV     R7,B
0600         ?C0340:
0600         ?C0747:
0600 22                RET     
                                           ; SOURCE LINE # 201
0601         ?C0342:
0601 8DF1              MOV     SFR_f1h,R5
0603 7F00              MOV     R7,#00H
0605 300002            JNB     echo,?C0343
0608 AFF1              MOV     R7,SFR_f1h
060A         ?C0343:
060A         ?C0748:
060A 22                RET     
                                           ; SOURCE LINE # 202
060B         ?C0345:
060B 8DF2              MOV     SFR_f2h,R5
060D 7F00              MOV     R7,#00H
060F 300002            JNB     echo,?C0346
0612 AFF2              MOV     R7,SFR_f2h
0614         ?C0346:
0614         ?C0749:
0614 22                RET     
                                           ; SOURCE LINE # 203
0615         ?C0348:
0615 8DF3              MOV     SFR_f3h,R5
0617 7F00              MOV     R7,#00H
0619 300002            JNB     echo,?C0349
061C AFF3              MOV     R7,SFR_f3h
061E         ?C0349:
061E         ?C0750:
061E 22                RET     
                                           ; SOURCE LINE # 204
061F         ?C0351:
061F 8DF4              MOV     SFR_f4h,R5
0621 7F00              MOV     R7,#00H
0623 300002            JNB     echo,?C0352
0626 AFF4              MOV     R7,SFR_f4h
0628         ?C0352:
0628         ?C0751:
0628 22                RET     
                                           ; SOURCE LINE # 205
0629         ?C0354:
0629 8DF5              MOV     SFR_f5h,R5
062B 7F00              MOV     R7,#00H
062D 300002            JNB     echo,?C0355
0630 AFF5              MOV     R7,SFR_f5h
0632         ?C0355:
0632         ?C0752:
0632 22                RET     
                                           ; SOURCE LINE # 206
0633         ?C0357:
0633 8DF6              MOV     SFR_f6h,R5
0635 7F00              MOV     R7,#00H
0637 300002            JNB     echo,?C0358
063A AFF6              MOV     R7,SFR_f6h
063C         ?C0358:
063C         ?C0753:
C51 COMPILER V9.56.0.0   MONITOR_MCU                                                       07/18/2018 10:44:45 PAGE 45  

063C 22                RET     
                                           ; SOURCE LINE # 207
063D         ?C0360:
063D 8DF7              MOV     SFR_f7h,R5
063F 7F00              MOV     R7,#00H
0641 300002            JNB     echo,?C0361
0644 AFF7              MOV     R7,SFR_f7h
0646         ?C0361:
0646         ?C0754:
0646 22                RET     
                                           ; SOURCE LINE # 208
0647         ?C0363:
0647 8DF8              MOV     SFR_f8h,R5
0649 7F00              MOV     R7,#00H
064B 300002            JNB     echo,?C0364
064E AFF8              MOV     R7,SFR_f8h
0650         ?C0364:
0650         ?C0755:
0650 22                RET     
                                           ; SOURCE LINE # 209
0651         ?C0366:
0651 8DF9              MOV     SFR_f9h,R5
0653 7F00              MOV     R7,#00H
0655 300002            JNB     echo,?C0367
0658 AFF9              MOV     R7,SFR_f9h
065A         ?C0367:
065A         ?C0756:
065A 22                RET     
                                           ; SOURCE LINE # 210
065B         ?C0369:
065B 8DFA              MOV     SFR_fah,R5
065D 7F00              MOV     R7,#00H
065F 300002            JNB     echo,?C0370
0662 AFFA              MOV     R7,SFR_fah
0664         ?C0370:
0664         ?C0757:
0664 22                RET     
                                           ; SOURCE LINE # 211
0665         ?C0372:
0665 8DFB              MOV     SFR_fbh,R5
0667 7F00              MOV     R7,#00H
0669 300002            JNB     echo,?C0373
066C AFFB              MOV     R7,SFR_fbh
066E         ?C0373:
066E         ?C0758:
066E 22                RET     
                                           ; SOURCE LINE # 212
066F         ?C0375:
066F 8DFC              MOV     SFR_fch,R5
0671 7F00              MOV     R7,#00H
0673 300002            JNB     echo,?C0376
0676 AFFC              MOV     R7,SFR_fch
0678         ?C0376:
0678         ?C0759:
0678 22                RET     
                                           ; SOURCE LINE # 213
0679         ?C0378:
0679 8DFD              MOV     SFR_fdh,R5
067B 7F00              MOV     R7,#00H
067D 300002            JNB     echo,?C0379
0680 AFFD              MOV     R7,SFR_fdh
0682         ?C0379:
C51 COMPILER V9.56.0.0   MONITOR_MCU                                                       07/18/2018 10:44:45 PAGE 46  

0682         ?C0760:
0682 22                RET     
                                           ; SOURCE LINE # 214
0683         ?C0381:
0683 8DFE              MOV     SFR_feh,R5
0685 7F00              MOV     R7,#00H
0687 300002            JNB     echo,?C0382
068A AFFE              MOV     R7,SFR_feh
068C         ?C0382:
068C         ?C0761:
068C 22                RET     
                                           ; SOURCE LINE # 215
068D         ?C0384:
068D AF05              MOV     R7,AR5
068F 8FFF              MOV     SFR_ffh,R7
0691 7F00              MOV     R7,#00H
0693 300002            JNB     echo,?C0385
0696 AFFF              MOV     R7,SFR_ffh
0698         ?C0385:
0698         ?C0762:
0698 22                RET     
                                           ; SOURCE LINE # 216
0699         ?C0001:
                                           ; SOURCE LINE # 217
0699 7F00              MOV     R7,#00H
                                           ; SOURCE LINE # 218
069B         ?C0004:
069B 22                RET     
             ; FUNCTION _WriteSFR (END)

             ; FUNCTION _ReadSFR (BEGIN)
                                           ; SOURCE LINE # 221
;---- Variable 'addr' assigned to Register 'R7' ----
                                           ; SOURCE LINE # 222
                                           ; SOURCE LINE # 223
0000 EF                MOV     A,R7
0001 2480              ADD     A,#080H
0003 B48000            CJNE    A,#080H,?C0634
0006         ?C0634:
0006 4003              JC      $ + 5H
0008 010000      R     AJMP    ?C0517
000B 90000000    R     MOV     DPTR,#?C0635
000F 110000      R     ACALL   L?0824
0012 73                JMP     @A+DPTR
0013         ?C0635:
0013 010000      R     AJMP    ?C0388
0016 010000      R     AJMP    ?C0390
0019 010000      R     AJMP    ?C0391
001C 010000      R     AJMP    ?C0392
001F 010000      R     AJMP    ?C0393
0022 010000      R     AJMP    ?C0394
0025 010000      R     AJMP    ?C0395
0028 010000      R     AJMP    ?C0396
002B 010000      R     AJMP    ?C0397
002E 010000      R     AJMP    ?C0398
0031 010000      R     AJMP    ?C0399
0034 010000      R     AJMP    ?C0400
0037 010000      R     AJMP    ?C0401
003A 010000      R     AJMP    ?C0402
003D 010000      R     AJMP    ?C0403
0040 010000      R     AJMP    ?C0404
0043 010000      R     AJMP    ?C0405
C51 COMPILER V9.56.0.0   MONITOR_MCU                                                       07/18/2018 10:44:45 PAGE 47  

0046 010000      R     AJMP    ?C0406
0049 010000      R     AJMP    ?C0407
004C 010000      R     AJMP    ?C0408
004F 010000      R     AJMP    ?C0409
0052 010000      R     AJMP    ?C0410
0055 010000      R     AJMP    ?C0411
0058 010000      R     AJMP    ?C0412
005B 010000      R     AJMP    ?C0413
005E 010000      R     AJMP    ?C0414
0061 010000      R     AJMP    ?C0415
0064 010000      R     AJMP    ?C0416
0067 010000      R     AJMP    ?C0417
006A 010000      R     AJMP    ?C0418
006D 010000      R     AJMP    ?C0419
0070 010000      R     AJMP    ?C0420
0073 010000      R     AJMP    ?C0421
0076 010000      R     AJMP    ?C0422
0079 010000      R     AJMP    ?C0423
007C 010000      R     AJMP    ?C0424
007F 010000      R     AJMP    ?C0425
0082 010000      R     AJMP    ?C0426
0085 010000      R     AJMP    ?C0427
0088 010000      R     AJMP    ?C0428
008B 010000      R     AJMP    ?C0429
008E 010000      R     AJMP    ?C0430
0091 010000      R     AJMP    ?C0431
0094 010000      R     AJMP    ?C0432
0097 010000      R     AJMP    ?C0433
009A 010000      R     AJMP    ?C0434
009D 010000      R     AJMP    ?C0435
00A0 010000      R     AJMP    ?C0436
00A3 010000      R     AJMP    ?C0437
00A6 010000      R     AJMP    ?C0438
00A9 010000      R     AJMP    ?C0439
00AC 010000      R     AJMP    ?C0440
00AF 010000      R     AJMP    ?C0441
00B2 010000      R     AJMP    ?C0442
00B5 010000      R     AJMP    ?C0443
00B8 010000      R     AJMP    ?C0444
00BB 010000      R     AJMP    ?C0445
00BE 010000      R     AJMP    ?C0446
00C1 010000      R     AJMP    ?C0447
00C4 010000      R     AJMP    ?C0448
00C7 010000      R     AJMP    ?C0449
00CA 010000      R     AJMP    ?C0450
00CD 010000      R     AJMP    ?C0451
00D0 010000      R     AJMP    ?C0452
00D3 010000      R     AJMP    ?C0453
00D6 010000      R     AJMP    ?C0454
00D9 010000      R     AJMP    ?C0455
00DC 010000      R     AJMP    ?C0456
00DF 010000      R     AJMP    ?C0457
00E2 010000      R     AJMP    ?C0458
00E5 010000      R     AJMP    ?C0459
00E8 010000      R     AJMP    ?C0460
00EB 010000      R     AJMP    ?C0461
00EE 010000      R     AJMP    ?C0462
00F1 010000      R     AJMP    ?C0463
00F4 010000      R     AJMP    ?C0464
00F7 010000      R     AJMP    ?C0465
00FA 010000      R     AJMP    ?C0466
00FD 010000      R     AJMP    ?C0467
C51 COMPILER V9.56.0.0   MONITOR_MCU                                                       07/18/2018 10:44:45 PAGE 48  

0100 010000      R     AJMP    ?C0468
0103 010000      R     AJMP    ?C0469
0106 010000      R     AJMP    ?C0470
0109 010000      R     AJMP    ?C0471
010C 010000      R     AJMP    ?C0472
010F 010000      R     AJMP    ?C0473
0112 010000      R     AJMP    ?C0474
0115 010000      R     AJMP    ?C0475
0118 010000      R     AJMP    ?C0476
011B 010000      R     AJMP    ?C0477
011E 010000      R     AJMP    ?C0478
0121 010000      R     AJMP    ?C0479
0124 010000      R     AJMP    ?C0480
0127 010000      R     AJMP    ?C0481
012A 010000      R     AJMP    ?C0482
012D 010000      R     AJMP    ?C0483
0130 010000      R     AJMP    ?C0484
0133 010000      R     AJMP    ?C0485
0136 010000      R     AJMP    ?C0486
0139 010000      R     AJMP    ?C0487
013C 010000      R     AJMP    ?C0488
013F 010000      R     AJMP    ?C0489
0142 010000      R     AJMP    ?C0490
0145 010000      R     AJMP    ?C0491
0148 010000      R     AJMP    ?C0492
014B 010000      R     AJMP    ?C0493
014E 010000      R     AJMP    ?C0494
0151 010000      R     AJMP    ?C0495
0154 010000      R     AJMP    ?C0496
0157 010000      R     AJMP    ?C0497
015A 010000      R     AJMP    ?C0498
015D 010000      R     AJMP    ?C0499
0160 010000      R     AJMP    ?C0500
0163 010000      R     AJMP    ?C0501
0166 010000      R     AJMP    ?C0502
0169 010000      R     AJMP    ?C0503
016C 010000      R     AJMP    ?C0504
016F 010000      R     AJMP    ?C0505
0172 010000      R     AJMP    ?C0506
0175 010000      R     AJMP    ?C0507
0178 010000      R     AJMP    ?C0508
017B 010000      R     AJMP    ?C0509
017E 010000      R     AJMP    ?C0510
0181 010000      R     AJMP    ?C0511
0184 010000      R     AJMP    ?C0512
0187 010000      R     AJMP    ?C0513
018A 010000      R     AJMP    ?C0514
018D 010000      R     AJMP    ?C0515
0190 010000      R     AJMP    ?C0516
                                           ; SOURCE LINE # 224
0193         ?C0388:
0193 AF80              MOV     R7,SFR_80h
0195 22                RET     
                                           ; SOURCE LINE # 225
0196         ?C0390:
0196 AF81              MOV     R7,SFR_81h
0198 22                RET     
                                           ; SOURCE LINE # 226
0199         ?C0391:
0199 AF82              MOV     R7,DPL
019B 22                RET     
                                           ; SOURCE LINE # 227
C51 COMPILER V9.56.0.0   MONITOR_MCU                                                       07/18/2018 10:44:45 PAGE 49  

019C         ?C0392:
019C AF83              MOV     R7,DPH
019E 22                RET     
                                           ; SOURCE LINE # 228
019F         ?C0393:
019F AF84              MOV     R7,SFR_84h
01A1 22                RET     
                                           ; SOURCE LINE # 229
01A2         ?C0394:
01A2 AF85              MOV     R7,SFR_85h
01A4 22                RET     
                                           ; SOURCE LINE # 230
01A5         ?C0395:
01A5 AF86              MOV     R7,SFR_86h
01A7 22                RET     
                                           ; SOURCE LINE # 231
01A8         ?C0396:
01A8 AF87              MOV     R7,SFR_87h
01AA 22                RET     
                                           ; SOURCE LINE # 232
01AB         ?C0397:
01AB AF88              MOV     R7,SFR_88h
01AD 22                RET     
                                           ; SOURCE LINE # 233
01AE         ?C0398:
01AE AF89              MOV     R7,SFR_89h
01B0 22                RET     
                                           ; SOURCE LINE # 234
01B1         ?C0399:
01B1 AF8A              MOV     R7,SFR_8ah
01B3 22                RET     
                                           ; SOURCE LINE # 235
01B4         ?C0400:
01B4 AF8B              MOV     R7,SFR_8bh
01B6 22                RET     
                                           ; SOURCE LINE # 236
01B7         ?C0401:
01B7 AF8C              MOV     R7,SFR_8ch
01B9 22                RET     
                                           ; SOURCE LINE # 237
01BA         ?C0402:
01BA AF8D              MOV     R7,SFR_8dh
01BC 22                RET     
                                           ; SOURCE LINE # 238
01BD         ?C0403:
01BD AF8E              MOV     R7,SFR_8eh
01BF 22                RET     
                                           ; SOURCE LINE # 239
01C0         ?C0404:
01C0 AF8F              MOV     R7,SFR_8fh
01C2 22                RET     
                                           ; SOURCE LINE # 241
01C3         ?C0405:
01C3 AF90              MOV     R7,SFR_90h
01C5 22                RET     
                                           ; SOURCE LINE # 242
01C6         ?C0406:
01C6 AF91              MOV     R7,SFR_91h
01C8 22                RET     
                                           ; SOURCE LINE # 243
01C9         ?C0407:
01C9 AF92              MOV     R7,SFR_92h
C51 COMPILER V9.56.0.0   MONITOR_MCU                                                       07/18/2018 10:44:45 PAGE 50  

01CB 22                RET     
                                           ; SOURCE LINE # 244
01CC         ?C0408:
01CC AF93              MOV     R7,SFR_93h
01CE 22                RET     
                                           ; SOURCE LINE # 245
01CF         ?C0409:
01CF AF94              MOV     R7,SFR_94h
01D1 22                RET     
                                           ; SOURCE LINE # 246
01D2         ?C0410:
01D2 AF95              MOV     R7,SFR_95h
01D4 22                RET     
                                           ; SOURCE LINE # 247
01D5         ?C0411:
01D5 AF96              MOV     R7,SFR_96h
01D7 22                RET     
                                           ; SOURCE LINE # 248
01D8         ?C0412:
01D8 AF97              MOV     R7,SFR_97h
01DA 22                RET     
                                           ; SOURCE LINE # 249
01DB         ?C0413:
01DB AF98              MOV     R7,SFR_98h
01DD 22                RET     
                                           ; SOURCE LINE # 250
01DE         ?C0414:
01DE AF99              MOV     R7,SFR_99h
01E0 22                RET     
                                           ; SOURCE LINE # 251
01E1         ?C0415:
01E1 AF9A              MOV     R7,SFR_9ah
01E3 22                RET     
                                           ; SOURCE LINE # 252
01E4         ?C0416:
01E4 AF9B              MOV     R7,SFR_9bh
01E6 22                RET     
                                           ; SOURCE LINE # 253
01E7         ?C0417:
01E7 AF9C              MOV     R7,SFR_9ch
01E9 22                RET     
                                           ; SOURCE LINE # 254
01EA         ?C0418:
01EA AF9D              MOV     R7,SFR_9dh
01EC 22                RET     
                                           ; SOURCE LINE # 255
01ED         ?C0419:
01ED AF9E              MOV     R7,SFR_9eh
01EF 22                RET     
                                           ; SOURCE LINE # 256
01F0         ?C0420:
01F0 AF9F              MOV     R7,SFR_9fh
01F2 22                RET     
                                           ; SOURCE LINE # 258
01F3         ?C0421:
01F3 AFA0              MOV     R7,SFR_a0h
01F5 22                RET     
                                           ; SOURCE LINE # 259
01F6         ?C0422:
01F6 AFA1              MOV     R7,SFR_a1h
01F8 22                RET     
                                           ; SOURCE LINE # 260
C51 COMPILER V9.56.0.0   MONITOR_MCU                                                       07/18/2018 10:44:45 PAGE 51  

01F9         ?C0423:
01F9 AFA2              MOV     R7,SFR_a2h
01FB 22                RET     
                                           ; SOURCE LINE # 261
01FC         ?C0424:
01FC AFA3              MOV     R7,SFR_a3h
01FE 22                RET     
                                           ; SOURCE LINE # 262
01FF         ?C0425:
01FF AFA4              MOV     R7,SFR_a4h
0201 22                RET     
                                           ; SOURCE LINE # 263
0202         ?C0426:
0202 AFA5              MOV     R7,SFR_a5h
0204 22                RET     
                                           ; SOURCE LINE # 264
0205         ?C0427:
0205 AFA6              MOV     R7,SFR_a6h
0207 22                RET     
                                           ; SOURCE LINE # 265
0208         ?C0428:
0208 AFA7              MOV     R7,SFR_a7h
020A 22                RET     
                                           ; SOURCE LINE # 266
020B         ?C0429:
020B AFA8              MOV     R7,SFR_a8h
020D 22                RET     
                                           ; SOURCE LINE # 267
020E         ?C0430:
020E AFA9              MOV     R7,SFR_a9h
0210 22                RET     
                                           ; SOURCE LINE # 268
0211         ?C0431:
0211 AFAA              MOV     R7,SFR_aah
0213 22                RET     
                                           ; SOURCE LINE # 269
0214         ?C0432:
0214 AFAB              MOV     R7,SFR_abh
0216 22                RET     
                                           ; SOURCE LINE # 270
0217         ?C0433:
0217 AFAC              MOV     R7,SFR_ach
0219 22                RET     
                                           ; SOURCE LINE # 271
021A         ?C0434:
021A AFAD              MOV     R7,SFR_adh
021C 22                RET     
                                           ; SOURCE LINE # 272
021D         ?C0435:
021D AFAE              MOV     R7,SFR_aeh
021F 22                RET     
                                           ; SOURCE LINE # 273
0220         ?C0436:
0220 AFAF              MOV     R7,SFR_afh
0222 22                RET     
                                           ; SOURCE LINE # 275
0223         ?C0437:
0223 AFB0              MOV     R7,SFR_b0h
0225 22                RET     
                                           ; SOURCE LINE # 276
0226         ?C0438:
0226 AFB1              MOV     R7,SFR_b1h
C51 COMPILER V9.56.0.0   MONITOR_MCU                                                       07/18/2018 10:44:45 PAGE 52  

0228 22                RET     
                                           ; SOURCE LINE # 277
0229         ?C0439:
0229 AFB2              MOV     R7,SFR_b2h
022B 22                RET     
                                           ; SOURCE LINE # 278
022C         ?C0440:
022C AFB3              MOV     R7,SFR_b3h
022E 22                RET     
                                           ; SOURCE LINE # 279
022F         ?C0441:
022F AFB4              MOV     R7,SFR_b4h
0231 22                RET     
                                           ; SOURCE LINE # 280
0232         ?C0442:
0232 AFB5              MOV     R7,SFR_b5h
0234 22                RET     
                                           ; SOURCE LINE # 281
0235         ?C0443:
0235 AFB6              MOV     R7,SFR_b6h
0237 22                RET     
                                           ; SOURCE LINE # 282
0238         ?C0444:
0238 AFB7              MOV     R7,SFR_b7h
023A 22                RET     
                                           ; SOURCE LINE # 283
023B         ?C0445:
023B AFB8              MOV     R7,SFR_b8h
023D 22                RET     
                                           ; SOURCE LINE # 284
023E         ?C0446:
023E AFB9              MOV     R7,SFR_b9h
0240 22                RET     
                                           ; SOURCE LINE # 285
0241         ?C0447:
0241 AFBA              MOV     R7,SFR_bah
0243 22                RET     
                                           ; SOURCE LINE # 286
0244         ?C0448:
0244 AFBB              MOV     R7,SFR_bbh
0246 22                RET     
                                           ; SOURCE LINE # 287
0247         ?C0449:
0247 AFBC              MOV     R7,SFR_bch
0249 22                RET     
                                           ; SOURCE LINE # 288
024A         ?C0450:
024A AFBD              MOV     R7,SFR_bdh
024C 22                RET     
                                           ; SOURCE LINE # 289
024D         ?C0451:
024D AFBE              MOV     R7,SFR_beh
024F 22                RET     
                                           ; SOURCE LINE # 290
0250         ?C0452:
0250 AFBF              MOV     R7,SFR_bfh
0252 22                RET     
                                           ; SOURCE LINE # 292
0253         ?C0453:
0253 AFC0              MOV     R7,SFR_c0h
0255 22                RET     
                                           ; SOURCE LINE # 293
C51 COMPILER V9.56.0.0   MONITOR_MCU                                                       07/18/2018 10:44:45 PAGE 53  

0256         ?C0454:
0256 AFC1              MOV     R7,SFR_c1h
0258 22                RET     
                                           ; SOURCE LINE # 294
0259         ?C0455:
0259 AFC2              MOV     R7,SFR_c2h
025B 22                RET     
                                           ; SOURCE LINE # 295
025C         ?C0456:
025C AFC3              MOV     R7,SFR_c3h
025E 22                RET     
                                           ; SOURCE LINE # 296
025F         ?C0457:
025F AFC4              MOV     R7,SFR_c4h
0261 22                RET     
                                           ; SOURCE LINE # 297
0262         ?C0458:
0262 AFC5              MOV     R7,SFR_c5h
0264 22                RET     
                                           ; SOURCE LINE # 298
0265         ?C0459:
0265 AFC6              MOV     R7,SFR_c6h
0267 22                RET     
                                           ; SOURCE LINE # 299
0268         ?C0460:
0268 AFC7              MOV     R7,SFR_c7h
026A 22                RET     
                                           ; SOURCE LINE # 300
026B         ?C0461:
026B AFC8              MOV     R7,SFR_c8h
026D 22                RET     
                                           ; SOURCE LINE # 301
026E         ?C0462:
026E AFC9              MOV     R7,SFR_c9h
0270 22                RET     
                                           ; SOURCE LINE # 302
0271         ?C0463:
0271 AFCA              MOV     R7,SFR_cah
0273 22                RET     
                                           ; SOURCE LINE # 303
0274         ?C0464:
0274 AFCB              MOV     R7,SFR_cbh
0276 22                RET     
                                           ; SOURCE LINE # 304
0277         ?C0465:
0277 AFCC              MOV     R7,SFR_cch
0279 22                RET     
                                           ; SOURCE LINE # 305
027A         ?C0466:
027A AFCD              MOV     R7,SFR_cdh
027C 22                RET     
                                           ; SOURCE LINE # 306
027D         ?C0467:
027D AFCE              MOV     R7,SFR_ceh
027F 22                RET     
                                           ; SOURCE LINE # 307
0280         ?C0468:
0280 AFCF              MOV     R7,SFR_cfh
0282 22                RET     
                                           ; SOURCE LINE # 309
0283         ?C0469:
0283 AFD0              MOV     R7,SFR_d0h
C51 COMPILER V9.56.0.0   MONITOR_MCU                                                       07/18/2018 10:44:45 PAGE 54  

0285 22                RET     
                                           ; SOURCE LINE # 310
0286         ?C0470:
0286 AFD1              MOV     R7,SFR_d1h
0288 22                RET     
                                           ; SOURCE LINE # 311
0289         ?C0471:
0289 AFD2              MOV     R7,SFR_d2h
028B 22                RET     
                                           ; SOURCE LINE # 312
028C         ?C0472:
028C AFD3              MOV     R7,SFR_d3h
028E 22                RET     
                                           ; SOURCE LINE # 313
028F         ?C0473:
028F AFD4              MOV     R7,SFR_d4h
0291 22                RET     
                                           ; SOURCE LINE # 314
0292         ?C0474:
0292 AFD5              MOV     R7,SFR_d5h
0294 22                RET     
                                           ; SOURCE LINE # 315
0295         ?C0475:
0295 AFD6              MOV     R7,SFR_d6h
0297 22                RET     
                                           ; SOURCE LINE # 316
0298         ?C0476:
0298 AFD7              MOV     R7,SFR_d7h
029A 22                RET     
                                           ; SOURCE LINE # 317
029B         ?C0477:
029B AFD8              MOV     R7,SFR_d8h
029D 22                RET     
                                           ; SOURCE LINE # 318
029E         ?C0478:
029E AFD9              MOV     R7,SFR_d9h
02A0 22                RET     
                                           ; SOURCE LINE # 319
02A1         ?C0479:
02A1 AFDA              MOV     R7,SFR_dah
02A3 22                RET     
                                           ; SOURCE LINE # 320
02A4         ?C0480:
02A4 AFDB              MOV     R7,SFR_dbh
02A6 22                RET     
                                           ; SOURCE LINE # 321
02A7         ?C0481:
02A7 AFDC              MOV     R7,SFR_dch
02A9 22                RET     
                                           ; SOURCE LINE # 322
02AA         ?C0482:
02AA AFDD              MOV     R7,SFR_ddh
02AC 22                RET     
                                           ; SOURCE LINE # 323
02AD         ?C0483:
02AD AFDE              MOV     R7,SFR_deh
02AF 22                RET     
                                           ; SOURCE LINE # 324
02B0         ?C0484:
02B0 AFDF              MOV     R7,SFR_dfh
02B2 22                RET     
                                           ; SOURCE LINE # 326
C51 COMPILER V9.56.0.0   MONITOR_MCU                                                       07/18/2018 10:44:45 PAGE 55  

02B3         ?C0485:
02B3 FF                MOV     R7,A
02B4 22                RET     
                                           ; SOURCE LINE # 327
02B5         ?C0486:
02B5 AFE1              MOV     R7,SFR_e1h
02B7 22                RET     
                                           ; SOURCE LINE # 328
02B8         ?C0487:
02B8 AFE2              MOV     R7,SFR_e2h
02BA 22                RET     
                                           ; SOURCE LINE # 329
02BB         ?C0488:
02BB AFE3              MOV     R7,SFR_e3h
02BD 22                RET     
                                           ; SOURCE LINE # 330
02BE         ?C0489:
02BE AFE4              MOV     R7,SFR_e4h
02C0 22                RET     
                                           ; SOURCE LINE # 331
02C1         ?C0490:
02C1 AFE5              MOV     R7,SFR_e5h
02C3 22                RET     
                                           ; SOURCE LINE # 332
02C4         ?C0491:
02C4 AFE6              MOV     R7,SFR_e6h
02C6 22                RET     
                                           ; SOURCE LINE # 333
02C7         ?C0492:
02C7 AFE7              MOV     R7,SFR_e7h
02C9 22                RET     
                                           ; SOURCE LINE # 334
02CA         ?C0493:
02CA AFE8              MOV     R7,SFR_e8h
02CC 22                RET     
                                           ; SOURCE LINE # 335
02CD         ?C0494:
02CD AFE9              MOV     R7,SFR_e9h
02CF 22                RET     
                                           ; SOURCE LINE # 336
02D0         ?C0495:
02D0 AFEA              MOV     R7,SFR_eah
02D2 22                RET     
                                           ; SOURCE LINE # 337
02D3         ?C0496:
02D3 AFEB              MOV     R7,SFR_ebh
02D5 22                RET     
                                           ; SOURCE LINE # 338
02D6         ?C0497:
02D6 AFEC              MOV     R7,SFR_ech
02D8 22                RET     
                                           ; SOURCE LINE # 339
02D9         ?C0498:
02D9 AFED              MOV     R7,SFR_edh
02DB 22                RET     
                                           ; SOURCE LINE # 340
02DC         ?C0499:
02DC AFEE              MOV     R7,SFR_eeh
02DE 22                RET     
                                           ; SOURCE LINE # 341
02DF         ?C0500:
02DF AFEF              MOV     R7,SFR_efh
C51 COMPILER V9.56.0.0   MONITOR_MCU                                                       07/18/2018 10:44:45 PAGE 56  

02E1 22                RET     
                                           ; SOURCE LINE # 343
02E2         ?C0501:
02E2 AFF0              MOV     R7,B
02E4 22                RET     
                                           ; SOURCE LINE # 344
02E5         ?C0502:
02E5 AFF1              MOV     R7,SFR_f1h
02E7 22                RET     
                                           ; SOURCE LINE # 345
02E8         ?C0503:
02E8 AFF2              MOV     R7,SFR_f2h
02EA 22                RET     
                                           ; SOURCE LINE # 346
02EB         ?C0504:
02EB AFF3              MOV     R7,SFR_f3h
02ED 22                RET     
                                           ; SOURCE LINE # 347
02EE         ?C0505:
02EE AFF4              MOV     R7,SFR_f4h
02F0 22                RET     
                                           ; SOURCE LINE # 348
02F1         ?C0506:
02F1 AFF5              MOV     R7,SFR_f5h
02F3 22                RET     
                                           ; SOURCE LINE # 349
02F4         ?C0507:
02F4 AFF6              MOV     R7,SFR_f6h
02F6 22                RET     
                                           ; SOURCE LINE # 350
02F7         ?C0508:
02F7 AFF7              MOV     R7,SFR_f7h
02F9 22                RET     
                                           ; SOURCE LINE # 351
02FA         ?C0509:
02FA AFF8              MOV     R7,SFR_f8h
02FC 22                RET     
                                           ; SOURCE LINE # 352
02FD         ?C0510:
02FD AFF9              MOV     R7,SFR_f9h
02FF 22                RET     
                                           ; SOURCE LINE # 353
0300         ?C0511:
0300 AFFA              MOV     R7,SFR_fah
0302 22                RET     
                                           ; SOURCE LINE # 354
0303         ?C0512:
0303 AFFB              MOV     R7,SFR_fbh
0305 22                RET     
                                           ; SOURCE LINE # 355
0306         ?C0513:
0306 AFFC              MOV     R7,SFR_fch
0308 22                RET     
                                           ; SOURCE LINE # 356
0309         ?C0514:
0309 AFFD              MOV     R7,SFR_fdh
030B 22                RET     
                                           ; SOURCE LINE # 357
030C         ?C0515:
030C AFFE              MOV     R7,SFR_feh
030E 22                RET     
                                           ; SOURCE LINE # 358
C51 COMPILER V9.56.0.0   MONITOR_MCU                                                       07/18/2018 10:44:45 PAGE 57  

030F         ?C0516:
030F AFFF              MOV     R7,SFR_ffh
0311 22                RET     
                                           ; SOURCE LINE # 360
0312         ?C0517:
0312 7F00              MOV     R7,#00H
                                           ; SOURCE LINE # 362
                                           ; SOURCE LINE # 363
0314         ?C0389:
0314 22                RET     
             ; FUNCTION _ReadSFR (END)

             ; FUNCTION MCUHelp (BEGIN)
                                           ; SOURCE LINE # 368
                                           ; SOURCE LINE # 369
                                           ; SOURCE LINE # 371
0000 110000      R     ACALL   L?0830
                                           ; SOURCE LINE # 372
0003 7B00        R     MOV     R3,#MBYTE ?SC_58
0005 7A00        R     MOV     R2,#HIGH ?SC_58
0007 7900        R     MOV     R1,#LOW ?SC_58
0009 110000      E     ACALL   _Puts
                                           ; SOURCE LINE # 373
000C 110000      R     ACALL   L?0830
                                           ; SOURCE LINE # 374
000F 7B00        R     MOV     R3,#MBYTE ?SC_114
0011 7A00        R     MOV     R2,#HIGH ?SC_114
0013 7900        R     MOV     R1,#LOW ?SC_114
0015 110000      E     ACALL   _Puts
                                           ; SOURCE LINE # 375
0018 7B00        R     MOV     R3,#MBYTE ?SC_152
001A 7A00        R     MOV     R2,#HIGH ?SC_152
001C 7900        R     MOV     R1,#LOW ?SC_152
001E 110000      E     ACALL   _Puts
                                           ; SOURCE LINE # 376
0021 7B00        R     MOV     R3,#MBYTE ?SC_191
0023 7A00        R     MOV     R2,#HIGH ?SC_191
0025 7900        R     MOV     R1,#LOW ?SC_191
0027 110000      E     ACALL   _Puts
                                           ; SOURCE LINE # 377
002A 7B00        R     MOV     R3,#MBYTE ?SC_229
002C 7A00        R     MOV     R2,#HIGH ?SC_229
002E 7900        R     MOV     R1,#LOW ?SC_229
0030 110000      E     ACALL   _Puts
                                           ; SOURCE LINE # 378
0033 7B00        R     MOV     R3,#MBYTE ?SC_294
0035 7A00        R     MOV     R2,#HIGH ?SC_294
0037 7900        R     MOV     R1,#LOW ?SC_294
0039 110000      E     ACALL   _Puts
                                           ; SOURCE LINE # 379
003C 7B00        R     MOV     R3,#MBYTE ?SC_336
003E 7A00        R     MOV     R2,#HIGH ?SC_336
0040 7900        R     MOV     R1,#LOW ?SC_336
0042 110000      E     ACALL   _Puts
                                           ; SOURCE LINE # 380
0045 7B00        R     MOV     R3,#MBYTE ?SC_376
0047 7A00        R     MOV     R2,#HIGH ?SC_376
0049 7900        R     MOV     R1,#LOW ?SC_376
004B 110000      E     ACALL   _Puts
                                           ; SOURCE LINE # 381
004E 7B00        R     MOV     R3,#MBYTE ?SC_417
0050 7A00        R     MOV     R2,#HIGH ?SC_417
C51 COMPILER V9.56.0.0   MONITOR_MCU                                                       07/18/2018 10:44:45 PAGE 58  

0052 7900        R     MOV     R1,#LOW ?SC_417
0054 110000      E     ACALL   _Puts
                                           ; SOURCE LINE # 383
0057 7B00        R     MOV     R3,#MBYTE ?SC_457
0059 7A00        R     MOV     R2,#HIGH ?SC_457
005B 7900        R     MOV     R1,#LOW ?SC_457
005D 110000      E     ACALL   _Puts
                                           ; SOURCE LINE # 385
0060 7B00        R     MOV     R3,#MBYTE ?SC_515
0062 7A00        R     MOV     R2,#HIGH ?SC_515
0064 7900        R     MOV     R1,#LOW ?SC_515
0066 110000      E     ACALL   _Puts
                                           ; SOURCE LINE # 386
0069 7B00        R     MOV     R3,#MBYTE ?SC_554
006B 7A00        R     MOV     R2,#HIGH ?SC_554
006D 7900        R     MOV     R1,#LOW ?SC_554
006F 110000      E     ACALL   _Puts
                                           ; SOURCE LINE # 387
0072 7B00        R     MOV     R3,#MBYTE ?SC_595
0074 7A00        R     MOV     R2,#HIGH ?SC_595
0076 7900        R     MOV     R1,#LOW ?SC_595
0078 110000      E     ACALL   _Puts
                                           ; SOURCE LINE # 388
007B 7B00        R     MOV     R3,#MBYTE ?SC_641
007D 7A00        R     MOV     R2,#HIGH ?SC_641
007F 7900        R     MOV     R1,#LOW ?SC_641
0081 110000      E     ACALL   _Puts
                                           ; SOURCE LINE # 389
0084 7B00        R     MOV     R3,#MBYTE ?SC_688
0086 7A00        R     MOV     R2,#HIGH ?SC_688
0088 7900        R     MOV     R1,#LOW ?SC_688
008A 110000      E     ACALL   _Puts
                                           ; SOURCE LINE # 390
008D 7B00        R     MOV     R3,#MBYTE ?SC_736
008F 7A00        R     MOV     R2,#HIGH ?SC_736
0091 7900        R     MOV     R1,#LOW ?SC_736
0093 110000      E     ACALL   _Puts
                                           ; SOURCE LINE # 391
0096 7B00        R     MOV     R3,#MBYTE ?SC_780
0098 7A00        R     MOV     R2,#HIGH ?SC_780
009A 7900        R     MOV     R1,#LOW ?SC_780
009C 010000      E     AJMP    _Puts
                                           ; SOURCE LINE # 393
009F         L?0830:
009F 7B00        R     MOV     R3,#MBYTE ?SC_0
00A1 7A00        R     MOV     R2,#HIGH ?SC_0
00A3 7900        R     MOV     R1,#LOW ?SC_0
00A5 110000      E     ACALL   _Puts
00A8 22                RET     
             ; FUNCTION MCUHelp (END)

             ; FUNCTION MCU_OFF_function (BEGIN)
                                           ; SOURCE LINE # 425
                                           ; SOURCE LINE # 426
                                           ; SOURCE LINE # 427
0000 7B00        R     MOV     R3,#MBYTE ?SC_783
0002 7A00        R     MOV     R2,#HIGH ?SC_783
0004 7900        R     MOV     R1,#LOW ?SC_783
0006 110000      E     ACALL   _Printf
                                           ; SOURCE LINE # 428
0009 759300      E     MOV     DPX,#?C?XDATASEG
000C E4                CLR     A
C51 COMPILER V9.56.0.0   MONITOR_MCU                                                       07/18/2018 10:44:45 PAGE 59  

000D 2500        E     ADD     A,regTW88+01H
000F F582              MOV     DPL,A
0011 E500        E     MOV     A,regTW88
0013 3404              ADDC    A,#04H
0015 F583              MOV     DPH,A
0017 759300      E     MOV     DPX,#?C?XDATASEG
001A E4                CLR     A
001B F0                MOVX    @DPTR,A
                                           ; SOURCE LINE # 431
001C 90000000    E     MOV     DPTR,#SpiFlash4ByteAddr
0020 E0                MOVX    A,@DPTR
0021 6018              JZ      ?C0519
                                           ; SOURCE LINE # 432
0023 E4                CLR     A
0024 FF                MOV     R7,A
0025 110000      E     ACALL   _SpiFlash_Set4BytesAddress
                                           ; SOURCE LINE # 433
0028 7B00        R     MOV     R3,#MBYTE ?SC_796
002A 7A00        R     MOV     R2,#HIGH ?SC_796
002C 7900        R     MOV     R1,#LOW ?SC_796
002E 90000000    E     MOV     DPTR,#SpiFlash4ByteAddr
0032 E0                MOVX    A,@DPTR
0033 90000000    E     MOV     DPTR,#?_Printf?BYTE+03H
0037 F0                MOVX    @DPTR,A
0038 110000      E     ACALL   _Printf
                                           ; SOURCE LINE # 434
003B         ?C0519:
                                           ; SOURCE LINE # 435
003B 7F01              MOV     R7,#01H
003D 110000      E     ACALL   _WaitVBlank
                                           ; SOURCE LINE # 436
0040 C2AF              CLR     SFRB_EA
                                           ; SOURCE LINE # 437
0042 E4                CLR     A
0043 F59C              MOV     SFR_CACHE_EN,A
                                           ; SOURCE LINE # 438
0045 759300      E     MOV     DPX,#?C?XDATASEG
0048 E500        E     MOV     A,regTW88+01H
004A 24ED              ADD     A,#0EDH
004C F582              MOV     DPL,A
004E E500        E     MOV     A,regTW88
0050 3404              ADDC    A,#04H
0052 F583              MOV     DPH,A
0054 759300      E     MOV     DPX,#?C?XDATASEG
0057 7455              MOV     A,#055H
0059 F0                MOVX    @DPTR,A
                                           ; SOURCE LINE # 439
005A 759300      E     MOV     DPX,#?C?XDATASEG
005D E500        E     MOV     A,regTW88+01H
005F 24ED              ADD     A,#0EDH
0061 F582              MOV     DPL,A
0063 E500        E     MOV     A,regTW88
0065 3404              ADDC    A,#04H
0067 F583              MOV     DPH,A
0069 759300      E     MOV     DPX,#?C?XDATASEG
006C 74AA              MOV     A,#0AAH
006E F0                MOVX    @DPTR,A
                                           ; SOURCE LINE # 440
006F 759300      E     MOV     DPX,#?C?XDATASEG
0072 E500        E     MOV     A,regTW88+01H
0074 24EC              ADD     A,#0ECH
0076 F582              MOV     DPL,A
C51 COMPILER V9.56.0.0   MONITOR_MCU                                                       07/18/2018 10:44:45 PAGE 60  

0078 E500        E     MOV     A,regTW88
007A 3404              ADDC    A,#04H
007C F583              MOV     DPH,A
007E 759300      E     MOV     DPX,#?C?XDATASEG
0081 E4                CLR     A
0082 F0                MOVX    @DPTR,A
                                           ; SOURCE LINE # 441
0083 22                RET     
             ; FUNCTION MCU_OFF_function (END)

             ; FUNCTION MonitorMCU (BEGIN)
                                           ; SOURCE LINE # 496
                                           ; SOURCE LINE # 497
                                           ; SOURCE LINE # 514
0000 7400        R     MOV     A,#MBYTE ?SC_815
0002 110000      R     ACALL   L?0794
0005 7400        R     MOV     A,#HIGH ?SC_815
0007 F0                MOVX    @DPTR,A
0008 7400        R     MOV     A,#LOW ?SC_815
000A 110000      R     ACALL   L?0787
000D 110000      E     ACALL   _stricmp
0010 EF                MOV     A,R7
0011 4E                ORL     A,R6
0012 707A              JNZ     ?C0521
                                           ; SOURCE LINE # 515
0014 110000      R     ACALL   L?0809
0017 9404              SUBB    A,#04H
0019 5003              JNC     ?C0522
                                           ; SOURCE LINE # 516
001B 010000      R     AJMP    ?C0767
                                           ; SOURCE LINE # 518
001E         ?C0522:
                                           ; SOURCE LINE # 519
001E 90000000    E     MOV     DPTR,#argv+06H
0022 110000      R     ACALL   L?0789
0025 110000      R     ACALL   L?0816
0028 F0                MOVX    @DPTR,A
                                           ; SOURCE LINE # 520
0029 90000000    E     MOV     DPTR,#argv+09H
002D 110000      R     ACALL   L?0789
0030 110000      E     ACALL   _a2h
0033 90000000    R     MOV     DPTR,#argv_num2
0037 EF                MOV     A,R7
0038 F0                MOVX    @DPTR,A
0039 FD                MOV     R5,A
                                           ; SOURCE LINE # 521
003A 90000000    R     MOV     DPTR,#argv_num1
003E E0                MOVX    A,@DPTR
003F FF                MOV     R7,A
0040 110000      R     ACALL   _WriteSFR
0043 90000000    R     MOV     DPTR,#ret
0047 EF                MOV     A,R7
0048 F0                MOVX    @DPTR,A
                                           ; SOURCE LINE # 522
0049 200003      E     JB      echo,$ + 6H
004C 010000      R     AJMP    ?C0523
                                           ; SOURCE LINE # 523
004F 7B00        R     MOV     R3,#MBYTE ?SC_847
0051 7A00        R     MOV     R2,#HIGH ?SC_847
0053 7900        R     MOV     R1,#LOW ?SC_847
0055 90000000    R     MOV     DPTR,#argv_num1
0059 E0                MOVX    A,@DPTR
C51 COMPILER V9.56.0.0   MONITOR_MCU                                                       07/18/2018 10:44:45 PAGE 61  

005A 90000000    E     MOV     DPTR,#?_Printf?BYTE+03H
005E F0                MOVX    @DPTR,A
005F 90000000    R     MOV     DPTR,#argv_num2
0063 E0                MOVX    A,@DPTR
0064 90000000    E     MOV     DPTR,#?_Printf?BYTE+04H
0068 110000      R     ACALL   L?0825
                                           ; SOURCE LINE # 524
006B 110000      R     ACALL   L?0812
006E F0                MOVX    @DPTR,A
006F         ?C0525:
                                           ; SOURCE LINE # 525
006F 90000000    R     MOV     DPTR,#ret
0073 E0                MOVX    A,@DPTR
0074 30E708            JNB     ACC.7,?C0528
0077 7B00        R     MOV     R3,#MBYTE ?SC_885
0079 7A00        R     MOV     R2,#HIGH ?SC_885
007B 7900        R     MOV     R1,#LOW ?SC_885
007D 8006              SJMP    ?C0765
007F         ?C0528:
007F 7B00        R     MOV     R3,#MBYTE ?SC_887
0081 7A00        R     MOV     R2,#HIGH ?SC_887
0083 7900        R     MOV     R1,#LOW ?SC_887
0085         ?C0765:
0085 110000      E     ACALL   _Puts
0088         ?C0529:
                                           ; SOURCE LINE # 526
                                           ; SOURCE LINE # 527
0088 110000      R     ACALL   L?0817
008B 40E2              JC      ?C0525
008D 22                RET     
                                           ; SOURCE LINE # 528
                                           ; SOURCE LINE # 529
008E         ?C0521:
                                           ; SOURCE LINE # 532
008E 7400        R     MOV     A,#MBYTE ?SC_889
0090 110000      R     ACALL   L?0794
0093 7400        R     MOV     A,#HIGH ?SC_889
0095 F0                MOVX    @DPTR,A
0096 7400        R     MOV     A,#LOW ?SC_889
0098 110000      R     ACALL   L?0787
009B 110000      E     ACALL   _stricmp
009E EF                MOV     A,R7
009F 4E                ORL     A,R6
00A0 7060              JNZ     ?C0531
                                           ; SOURCE LINE # 533
00A2 110000      R     ACALL   L?0809
00A5 9403              SUBB    A,#03H
00A7 5003              JNC     ?C0532
                                           ; SOURCE LINE # 534
00A9         ?C0764:
00A9 010000      R     AJMP    ?C0767
                                           ; SOURCE LINE # 536
00AC         ?C0532:
                                           ; SOURCE LINE # 537
00AC 90000000    E     MOV     DPTR,#argv+06H
00B0 110000      R     ACALL   L?0789
00B3 110000      R     ACALL   L?0816
00B6 F0                MOVX    @DPTR,A
                                           ; SOURCE LINE # 538
00B7 110000      R     ACALL   _ReadSFR
00BA 90000000    R     MOV     DPTR,#ret
00BE EF                MOV     A,R7
C51 COMPILER V9.56.0.0   MONITOR_MCU                                                       07/18/2018 10:44:45 PAGE 62  

00BF F0                MOVX    @DPTR,A
                                           ; SOURCE LINE # 539
00C0 200003      E     JB      echo,$ + 6H
00C3 010000      R     AJMP    ?C0523
                                           ; SOURCE LINE # 540
00C6 7B00        R     MOV     R3,#MBYTE ?SC_892
00C8 7A00        R     MOV     R2,#HIGH ?SC_892
00CA 7900        R     MOV     R1,#LOW ?SC_892
00CC 90000000    R     MOV     DPTR,#argv_num1
00D0 E0                MOVX    A,@DPTR
00D1 90000000    E     MOV     DPTR,#?_Printf?BYTE+03H
00D5 F0                MOVX    @DPTR,A
00D6 90000000    R     MOV     DPTR,#ret
00DA E0                MOVX    A,@DPTR
00DB 90000000    E     MOV     DPTR,#?_Printf?BYTE+04H
                                           ; SOURCE LINE # 541
00DF 110000      R     ACALL   L?0812
00E2 F0                MOVX    @DPTR,A
00E3         ?C0534:
                                           ; SOURCE LINE # 542
00E3 90000000    R     MOV     DPTR,#ret
00E7 E0                MOVX    A,@DPTR
00E8 30E708            JNB     ACC.7,?C0537
00EB 7B00        R     MOV     R3,#MBYTE ?SC_885
00ED 7A00        R     MOV     R2,#HIGH ?SC_885
00EF 7900        R     MOV     R1,#LOW ?SC_885
00F1 8006              SJMP    ?C0768
00F3         ?C0537:
00F3 7B00        R     MOV     R3,#MBYTE ?SC_887
00F5 7A00        R     MOV     R2,#HIGH ?SC_887
00F7 7900        R     MOV     R1,#LOW ?SC_887
00F9         ?C0768:
00F9 110000      E     ACALL   _Puts
00FC         ?C0538:
                                           ; SOURCE LINE # 543
                                           ; SOURCE LINE # 544
00FC 110000      R     ACALL   L?0817
00FF 40E2              JC      ?C0534
0101         ?C0766:
0101 22                RET     
                                           ; SOURCE LINE # 545
                                           ; SOURCE LINE # 546
0102         ?C0531:
                                           ; SOURCE LINE # 549
0102 7400        R     MOV     A,#MBYTE ?SC_921
0104 110000      R     ACALL   L?0795
0107 7400        R     MOV     A,#HIGH ?SC_921
0109 F0                MOVX    @DPTR,A
010A A3                INC     DPTR
010B 7400        R     MOV     A,#LOW ?SC_921
010D 110000      R     ACALL   L?0788
0110 110000      E     ACALL   _stricmp
0113 EF                MOV     A,R7
0114 4E                ORL     A,R6
0115 7059              JNZ     ?C0540
                                           ; SOURCE LINE # 551
0117 7B00        R     MOV     R3,#MBYTE ?SC_924
0119 7A00        R     MOV     R2,#HIGH ?SC_924
011B 7900        R     MOV     R1,#LOW ?SC_924
011D 110000      E     ACALL   _Printf
                                           ; SOURCE LINE # 552
0120 90000000    R     MOV     DPTR,#j
C51 COMPILER V9.56.0.0   MONITOR_MCU                                                       07/18/2018 10:44:45 PAGE 63  

0124 7408              MOV     A,#08H
0126 F0                MOVX    @DPTR,A
0127         ?C0541:
0127 90000000    R     MOV     DPTR,#j
012B E0                MOVX    A,@DPTR
012C FF                MOV     R7,A
012D D3                SETB    C
012E 940F              SUBB    A,#0FH
0130 4003              JC      $ + 5H
0132 010000      R     AJMP    ?C0523
                                           ; SOURCE LINE # 553
0135 7B00        R     MOV     R3,#MBYTE ?SC_942
0137 7A00        R     MOV     R2,#HIGH ?SC_942
0139 7900        R     MOV     R1,#LOW ?SC_942
013B EF                MOV     A,R7
013C C4                SWAP    A
013D 54F0              ANL     A,#0F0H
013F 90000000    E     MOV     DPTR,#?_Printf?BYTE+03H
                                           ; SOURCE LINE # 554
0143 110000      R     ACALL   L?0831
0146 F0                MOVX    @DPTR,A
0147         ?C0544:
0147 110000      R     ACALL   L?0822
014A 9408              SUBB    A,#08H
014C 5006              JNC     ?C0545
014E 110000      R     ACALL   L?0800
0151 F0                MOVX    @DPTR,A
0152 80F3              SJMP    ?C0544
0154         ?C0545:
                                           ; SOURCE LINE # 555
0154 7B00        R     MOV     R3,#MBYTE ?SC_963
0156 7A00        R     MOV     R2,#HIGH ?SC_963
0158 7900        R     MOV     R1,#LOW ?SC_963
015A 110000      E     ACALL   _Printf
                                           ; SOURCE LINE # 556
015D         ?C0547:
015D 110000      R     ACALL   L?0822
0160 9410              SUBB    A,#010H
0162 5006              JNC     ?C0543
0164 110000      R     ACALL   L?0800
0167 F0                MOVX    @DPTR,A
0168 80F3              SJMP    ?C0547
                                           ; SOURCE LINE # 557
016A         ?C0543:
016A 110000      R     ACALL   L?0827
016D F0                MOVX    @DPTR,A
016E 80B7              SJMP    ?C0541
                                           ; SOURCE LINE # 559
0170         ?C0540:
                                           ; SOURCE LINE # 561
0170 7400        R     MOV     A,#MBYTE ?SC_966
0172 110000      R     ACALL   L?0795
0175 7400        R     MOV     A,#HIGH ?SC_966
0177 F0                MOVX    @DPTR,A
0178 A3                INC     DPTR
0179 7400        R     MOV     A,#LOW ?SC_966
017B 110000      R     ACALL   L?0788
017E 110000      E     ACALL   _stricmp
0181 EF                MOV     A,R7
0182 4E                ORL     A,R6
0183 7009              JNZ     ?C0551
                                           ; SOURCE LINE # 562
C51 COMPILER V9.56.0.0   MONITOR_MCU                                                       07/18/2018 10:44:45 PAGE 64  

0185 7B00        R     MOV     R3,#MBYTE ?SC_969
0187 7A00        R     MOV     R2,#HIGH ?SC_969
0189 7900        R     MOV     R1,#LOW ?SC_969
                                           ; SOURCE LINE # 563
018B 010000      R     AJMP    ?C0785
018E         ?C0551:
                                           ; SOURCE LINE # 565
018E 7400        R     MOV     A,#MBYTE ?SC_979
0190 110000      R     ACALL   L?0798
0193 7400        R     MOV     A,#HIGH ?SC_979
0195 F0                MOVX    @DPTR,A
0196 A3                INC     DPTR
0197 7400        R     MOV     A,#LOW ?SC_979
0199 110000      R     ACALL   L?0788
019C 110000      E     ACALL   _stricmp
019F EF                MOV     A,R7
01A0 4E                ORL     A,R6
01A1 6003              JZ      $ + 5H
01A3 010000      R     AJMP    ?C0553
                                           ; SOURCE LINE # 569
01A6 C2A9              CLR     SFRB_ET0
                                           ; SOURCE LINE # 570
01A8 90000000    R     MOV     DPTR,#UsedTime
                                           ; SOURCE LINE # 571
01AC 110000      R     ACALL   L?0806
                                           ; SOURCE LINE # 573
01AF 7B00        R     MOV     R3,#MBYTE ?SC_983
01B1 7A00        R     MOV     R2,#HIGH ?SC_983
01B3 7900        R     MOV     R1,#LOW ?SC_983
01B5 110000      E     ACALL   _Printf
                                           ; SOURCE LINE # 577
01B8 E4                CLR     A
01B9 90000000    R     MOV     DPTR,#j
01BD F0                MOVX    @DPTR,A
01BE         ?C0554:
01BE 90000000    R     MOV     DPTR,#j
01C2 E0                MOVX    A,@DPTR
01C3 FF                MOV     R7,A
01C4 C3                CLR     C
01C5 9480              SUBB    A,#080H
01C7 4003              JC      $ + 5H
01C9 010000      R     AJMP    ?C0555
                                           ; SOURCE LINE # 578
01CC EF                MOV     A,R7
01CD 2480              ADD     A,#080H
01CF A3                INC     DPTR
01D0 F0                MOVX    @DPTR,A
                                           ; SOURCE LINE # 579
01D1 E4                CLR     A
01D2 90000000    R     MOV     DPTR,#i
01D6 F0                MOVX    @DPTR,A
01D7         ?C0557:
01D7 110000      R     ACALL   L?0823
01DA 9480              SUBB    A,#080H
01DC 5027              JNC     ?C0558
                                           ; SOURCE LINE # 580
01DE 75F007            MOV     B,#07H
01E1 EF                MOV     A,R7
01E2 110000      R     ACALL   L?0818
01E5 FF                MOV     R7,A
01E6 90000000    R     MOV     DPTR,#idx
01EA E0                MOVX    A,@DPTR
C51 COMPILER V9.56.0.0   MONITOR_MCU                                                       07/18/2018 10:44:45 PAGE 65  

01EB FE                MOV     R6,A
01EC EF                MOV     A,R7
01ED 6E                XRL     A,R6
01EE 6015              JZ      ?C0558
                                           ; SOURCE LINE # 581
01F0         ?C0560:
                                           ; SOURCE LINE # 582
01F0 EF                MOV     A,R7
01F1 7009              JNZ     ?C0559
                                           ; SOURCE LINE # 583
01F3 90000000    R     MOV     DPTR,#i
01F7 7480              MOV     A,#080H
01F9 F0                MOVX    @DPTR,A
                                           ; SOURCE LINE # 584
01FA 8009              SJMP    ?C0558
                                           ; SOURCE LINE # 585
                                           ; SOURCE LINE # 586
01FC         ?C0559:
01FC 90000000    R     MOV     DPTR,#i
0200 E0                MOVX    A,@DPTR
0201 04                INC     A
0202 F0                MOVX    @DPTR,A
0203 80D2              SJMP    ?C0557
0205         ?C0558:
                                           ; SOURCE LINE # 587
0205 90000000    R     MOV     DPTR,#j
0209 E0                MOVX    A,@DPTR
020A 5407              ANL     A,#07H
020C 7009              JNZ     ?C0562
                                           ; SOURCE LINE # 588
020E 7B00        R     MOV     R3,#MBYTE ?SC_780
0210 7A00        R     MOV     R2,#HIGH ?SC_780
0212 7900        R     MOV     R1,#LOW ?SC_780
0214 110000      E     ACALL   _Puts
0217         ?C0562:
                                           ; SOURCE LINE # 589
0217 90000000    R     MOV     DPTR,#i
021B E0                MOVX    A,@DPTR
021C 6480              XRL     A,#080H
021E 607A              JZ      ?C0563
                                           ; SOURCE LINE # 590
0220 E0                MOVX    A,@DPTR
0221 FF                MOV     R7,A
0222 75F007            MOV     B,#07H
0225 110000      R     ACALL   L?0818
0228 90000000    E     MOV     DPTR,#?_Printf?BYTE+03H
022C F0                MOVX    @DPTR,A
022D EF                MOV     A,R7
022E 110000      R     ACALL   L?0821
0231 A3                INC     DPTR
0232 7400        R     MOV     A,#MBYTE SFR_map
0234 F0                MOVX    @DPTR,A
0235 A3                INC     DPTR
0236 EA                MOV     A,R2
0237 F0                MOVX    @DPTR,A
0238 A3                INC     DPTR
0239 E9                MOV     A,R1
023A F0                MOVX    @DPTR,A
023B 7B00        R     MOV     R3,#MBYTE ?SC_1002
023D 7A00        R     MOV     R2,#HIGH ?SC_1002
023F 7900        R     MOV     R1,#LOW ?SC_1002
0241 110000      E     ACALL   _Printf
C51 COMPILER V9.56.0.0   MONITOR_MCU                                                       07/18/2018 10:44:45 PAGE 66  

                                           ; SOURCE LINE # 591
0244 90000000    R     MOV     DPTR,#i
0248 E0                MOVX    A,@DPTR
0249 110000      R     ACALL   L?0821
024C 7B00        R     MOV     R3,#MBYTE SFR_map
024E 110000      E     ACALL   _TWstrlen
0251 90000000    R     MOV     DPTR,#len
0255 EF                MOV     A,R7
0256 F0                MOVX    @DPTR,A
                                           ; SOURCE LINE # 592
0257 C3                CLR     C
0258 7405              MOV     A,#05H
025A 9F                SUBB    A,R7
025B F0                MOVX    @DPTR,A
                                           ; SOURCE LINE # 593
025C E4                CLR     A
025D 90000000    R     MOV     DPTR,#i
0261 F0                MOVX    @DPTR,A
0262         ?C0564:
0262 90000000    R     MOV     DPTR,#len
0266 E0                MOVX    A,@DPTR
0267 FF                MOV     R7,A
0268 90000000    R     MOV     DPTR,#i
026C E0                MOVX    A,@DPTR
026D C3                CLR     C
026E 9F                SUBB    A,R7
026F 5012              JNC     ?C0565
                                           ; SOURCE LINE # 594
0271 7B00        R     MOV     R3,#MBYTE ?SC_1013
0273 7A00        R     MOV     R2,#HIGH ?SC_1013
0275 7900        R     MOV     R1,#LOW ?SC_1013
0277 110000      E     ACALL   _Puts
027A 90000000    R     MOV     DPTR,#i
027E E0                MOVX    A,@DPTR
027F 04                INC     A
0280 F0                MOVX    @DPTR,A
0281 80DF              SJMP    ?C0564
0283         ?C0565:
                                           ; SOURCE LINE # 595
0283 90000000    R     MOV     DPTR,#idx
0287 E0                MOVX    A,@DPTR
0288 FF                MOV     R7,A
0289 110000      R     ACALL   _ReadSFR
028C 90000000    E     MOV     DPTR,#?_Printf?BYTE+03H
0290 EF                MOV     A,R7
0291 F0                MOVX    @DPTR,A
0292 7B00        R     MOV     R3,#MBYTE ?SC_1015
0294 7A00        R     MOV     R2,#HIGH ?SC_1015
0296 7900        R     MOV     R1,#LOW ?SC_1015
                                           ; SOURCE LINE # 596
0298 8006              SJMP    ?C0770
029A         ?C0563:
                                           ; SOURCE LINE # 597
                                           ; SOURCE LINE # 600
029A 7B00        R     MOV     R3,#MBYTE ?SC_1023
029C 7A00        R     MOV     R2,#HIGH ?SC_1023
029E 7900        R     MOV     R1,#LOW ?SC_1023
02A0         ?C0770:
02A0 110000      E     ACALL   _Printf
                                           ; SOURCE LINE # 601
                                           ; SOURCE LINE # 602
02A3         ?C0556:
C51 COMPILER V9.56.0.0   MONITOR_MCU                                                       07/18/2018 10:44:45 PAGE 67  

02A3 110000      R     ACALL   L?0827
02A6 F0                MOVX    @DPTR,A
02A7 010000      R     AJMP    ?C0554
02AA         ?C0555:
                                           ; SOURCE LINE # 604
02AA 90000000    R     MOV     DPTR,#UsedTime
02AE E0                MOVX    A,@DPTR
02AF F8                MOV     R0,A
02B0 A3                INC     DPTR
02B1 E0                MOVX    A,@DPTR
02B2 F9                MOV     R1,A
02B3 A3                INC     DPTR
02B4 E0                MOVX    A,@DPTR
02B5 FA                MOV     R2,A
02B6 A3                INC     DPTR
02B7 E0                MOVX    A,@DPTR
02B8 FB                MOV     R3,A
02B9 C3                CLR     C
02BA E500        E     MOV     A,SystemClock+03H
02BC 9B                SUBB    A,R3
02BD FF                MOV     R7,A
02BE E500        E     MOV     A,SystemClock+02H
02C0 9A                SUBB    A,R2
02C1 FE                MOV     R6,A
02C2 E500        E     MOV     A,SystemClock+01H
02C4 99                SUBB    A,R1
02C5 FD                MOV     R5,A
02C6 E500        E     MOV     A,SystemClock
02C8 98                SUBB    A,R0
02C9 FC                MOV     R4,A
02CA 90000000    R     MOV     DPTR,#UsedTime
02CE 110000      E     ACALL   ?C?LSTXDATA
                                           ; SOURCE LINE # 605
02D1 90000000    R     MOV     DPTR,#UsedTime
02D5 110000      R     ACALL   L?0791
02D8 E0                MOVX    A,@DPTR
02D9 FF                MOV     R7,A
02DA 110000      E     ACALL   ?C?ULDIV
02DD 90000000    E     MOV     DPTR,#?_Printf?BYTE+03H
02E1 110000      E     ACALL   ?C?LSTXDATA
02E4 E4                CLR     A
02E5 7B64              MOV     R3,#064H
02E7 FA                MOV     R2,A
02E8 F9                MOV     R1,A
02E9 F8                MOV     R0,A
02EA 90000000    R     MOV     DPTR,#UsedTime
02EE 110000      R     ACALL   L?0792
02F1 110000      R     ACALL   L?0802
02F4 7B00        R     MOV     R3,#MBYTE ?SC_1036
02F6 7A00        R     MOV     R2,#HIGH ?SC_1036
02F8 7900        R     MOV     R1,#LOW ?SC_1036
02FA         ?C0769:
                                           ; SOURCE LINE # 607
02FA 010000      R     AJMP    ?C0785
02FD         ?C0553:
                                           ; SOURCE LINE # 609
02FD 7400        R     MOV     A,#MBYTE ?SC_1058
02FF 110000      R     ACALL   L?0798
0302 7400        R     MOV     A,#HIGH ?SC_1058
0304 F0                MOVX    @DPTR,A
0305 A3                INC     DPTR
0306 7400        R     MOV     A,#LOW ?SC_1058
C51 COMPILER V9.56.0.0   MONITOR_MCU                                                       07/18/2018 10:44:45 PAGE 68  

0308 110000      R     ACALL   L?0788
030B 110000      E     ACALL   _stricmp
030E EF                MOV     A,R7
030F 4E                ORL     A,R6
0310 7070              JNZ     ?C0569
                                           ; SOURCE LINE # 613
0312 110000      R     ACALL   L?0810
0315 9404              SUBB    A,#04H
0317 5009              JNC     ?C0570
                                           ; SOURCE LINE # 614
0319         ?C0767:
0319 7B00        R     MOV     R3,#MBYTE ?SC_818
031B 7A00        R     MOV     R2,#HIGH ?SC_818
031D 7900        R     MOV     R1,#LOW ?SC_818
031F         ?C0771:
031F 010000      R     AJMP    ?C0785
                                           ; SOURCE LINE # 616
0322         ?C0570:
                                           ; SOURCE LINE # 617
0322 90000000    E     MOV     DPTR,#argv+06H
0326 110000      R     ACALL   L?0789
0329 110000      R     ACALL   L?0813
032C F0                MOVX    @DPTR,A
                                           ; SOURCE LINE # 618
032D 90000000    E     MOV     DPTR,#argv+09H
0331 110000      R     ACALL   L?0789
0334 110000      E     ACALL   _a2h
0337 90000000    R     MOV     DPTR,#argv_num2
033B EF                MOV     A,R7
033C F0                MOVX    @DPTR,A
                                           ; SOURCE LINE # 620
033D A3                INC     DPTR
033E E0                MOVX    A,@DPTR
033F FC                MOV     R4,A
0340 A3                INC     DPTR
0341 E0                MOVX    A,@DPTR
0342 FD                MOV     R5,A
0343 F582              MOV     DPL,A
0345 8C83              MOV     DPH,R4
0347 759300      E     MOV     DPX,#?C?XDATASEG
034A EF                MOV     A,R7
034B F0                MOVX    @DPTR,A
                                           ; SOURCE LINE # 621
034C 8D82              MOV     DPL,R5
034E 8C83              MOV     DPH,R4
0350 759300      E     MOV     DPX,#?C?XDATASEG
0353 E0                MOVX    A,@DPTR
0354 90000000    R     MOV     DPTR,#ret
0358 F0                MOVX    @DPTR,A
                                           ; SOURCE LINE # 623
0359 200003      E     JB      echo,$ + 6H
035C 010000      R     AJMP    ?C0523
                                           ; SOURCE LINE # 624
035F 7B00        R     MOV     R3,#MBYTE ?SC_1061
0361 7A00        R     MOV     R2,#HIGH ?SC_1061
0363 7900        R     MOV     R1,#LOW ?SC_1061
0365 EC                MOV     A,R4
0366 110000      R     ACALL   L?0815
0369 ED                MOV     A,R5
036A F0                MOVX    @DPTR,A
036B 90000000    R     MOV     DPTR,#argv_num2
036F E0                MOVX    A,@DPTR
C51 COMPILER V9.56.0.0   MONITOR_MCU                                                       07/18/2018 10:44:45 PAGE 69  

0370 90000000    E     MOV     DPTR,#?_Printf?BYTE+05H
0374 F0                MOVX    @DPTR,A
0375 90000000    R     MOV     DPTR,#ret
0379 E0                MOVX    A,@DPTR
037A 90000000    E     MOV     DPTR,#?_Printf?BYTE+06H
037E F0                MOVX    @DPTR,A
037F         ?C0772:
                                           ; SOURCE LINE # 625
                                           ; SOURCE LINE # 626
037F 010000      R     AJMP    ?C0785
0382         ?C0569:
                                           ; SOURCE LINE # 629
0382 7400        R     MOV     A,#MBYTE ?SC_1100
0384 110000      R     ACALL   L?0799
0387 7400        R     MOV     A,#HIGH ?SC_1100
0389 F0                MOVX    @DPTR,A
038A A3                INC     DPTR
038B 7400        R     MOV     A,#LOW ?SC_1100
038D 110000      R     ACALL   L?0788
0390 110000      E     ACALL   _stricmp
0393 EF                MOV     A,R7
0394 4E                ORL     A,R6
0395 703F              JNZ     ?C0573
                                           ; SOURCE LINE # 633
0397 110000      R     ACALL   L?0810
039A 9403              SUBB    A,#03H
039C 5009              JNC     ?C0574
                                           ; SOURCE LINE # 634
039E 7B00        R     MOV     R3,#MBYTE ?SC_818
03A0 7A00        R     MOV     R2,#HIGH ?SC_818
03A2 7900        R     MOV     R1,#LOW ?SC_818
03A4         ?C0773:
03A4 010000      R     AJMP    ?C0785
                                           ; SOURCE LINE # 636
03A7         ?C0574:
                                           ; SOURCE LINE # 637
03A7 90000000    E     MOV     DPTR,#argv+06H
03AB 110000      R     ACALL   L?0789
03AE 110000      R     ACALL   L?0813
03B1 F0                MOVX    @DPTR,A
                                           ; SOURCE LINE # 639
03B2 F582              MOV     DPL,A
03B4 8E83              MOV     DPH,R6
03B6 759300      E     MOV     DPX,#?C?XDATASEG
03B9 E0                MOVX    A,@DPTR
03BA 90000000    R     MOV     DPTR,#ret
03BE F0                MOVX    @DPTR,A
                                           ; SOURCE LINE # 641
03BF 200003      E     JB      echo,$ + 6H
03C2 010000      R     AJMP    ?C0523
                                           ; SOURCE LINE # 642
03C5 7B00        R     MOV     R3,#MBYTE ?SC_1103
03C7 7A00        R     MOV     R2,#HIGH ?SC_1103
03C9 7900        R     MOV     R1,#LOW ?SC_1103
03CB 110000      R     ACALL   L?0814
03CE EF                MOV     A,R7
03CF 110000      R     ACALL   L?0825
03D2 F0                MOVX    @DPTR,A
03D3         ?C0774:
                                           ; SOURCE LINE # 643
                                           ; SOURCE LINE # 644
03D3 010000      R     AJMP    ?C0785
C51 COMPILER V9.56.0.0   MONITOR_MCU                                                       07/18/2018 10:44:45 PAGE 70  

03D6         ?C0573:
                                           ; SOURCE LINE # 647
03D6 7400        R     MOV     A,#MBYTE ?SC_1133
03D8 110000      R     ACALL   L?0799
03DB 7400        R     MOV     A,#HIGH ?SC_1133
03DD F0                MOVX    @DPTR,A
03DE A3                INC     DPTR
03DF 7400        R     MOV     A,#LOW ?SC_1133
03E1 110000      R     ACALL   L?0788
03E4 110000      E     ACALL   _stricmp
03E7 EF                MOV     A,R7
03E8 4E                ORL     A,R6
03E9 6003              JZ      $ + 5H
03EB 010000      R     AJMP    ?C0577
                                           ; SOURCE LINE # 651
03EE 90000000    R     MOV     DPTR,#addr
03F2 F0                MOVX    @DPTR,A
03F3 A3                INC     DPTR
03F4 F0                MOVX    @DPTR,A
03F5 A3                INC     DPTR
03F6 04                INC     A
03F7 F0                MOVX    @DPTR,A
03F8 A3                INC     DPTR
03F9 E4                CLR     A
03FA F0                MOVX    @DPTR,A
                                           ; SOURCE LINE # 653
03FB 110000      R     ACALL   L?0810
03FE 9403              SUBB    A,#03H
0400 4013              JC      ?C0578
0402 90000000    E     MOV     DPTR,#argv+06H
0406 110000      R     ACALL   L?0789
0409 110000      E     ACALL   _a2h
040C 90000000    R     MOV     DPTR,#addr
0410 EE                MOV     A,R6
0411 F0                MOVX    @DPTR,A
0412 A3                INC     DPTR
0413 EF                MOV     A,R7
0414 F0                MOVX    @DPTR,A
0415         ?C0578:
                                           ; SOURCE LINE # 654
0415 110000      R     ACALL   L?0810
0418 9404              SUBB    A,#04H
041A 4013              JC      ?C0579
041C 90000000    E     MOV     DPTR,#argv+09H
0420 110000      R     ACALL   L?0789
0423 110000      E     ACALL   _a2h
0426 90000000    R     MOV     DPTR,#len
042A EE                MOV     A,R6
042B F0                MOVX    @DPTR,A
042C A3                INC     DPTR
042D EF                MOV     A,R7
042E F0                MOVX    @DPTR,A
042F         ?C0579:
                                           ; SOURCE LINE # 656
042F 7B00        R     MOV     R3,#MBYTE ?SC_1136
0431 7A00        R     MOV     R2,#HIGH ?SC_1136
0433 7900        R     MOV     R1,#LOW ?SC_1136
0435 110000      R     ACALL   L?0814
0438 EF                MOV     A,R7
0439 F0                MOVX    @DPTR,A
043A 110000      E     ACALL   _Printf
                                           ; SOURCE LINE # 657
C51 COMPILER V9.56.0.0   MONITOR_MCU                                                       07/18/2018 10:44:45 PAGE 71  

043D E4                CLR     A
043E 90000000    R     MOV     DPTR,#j
0442 F0                MOVX    @DPTR,A
0443         ?C0580:
0443 90000000    R     MOV     DPTR,#len
0447 E0                MOVX    A,@DPTR
0448 C4                SWAP    A
0449 F8                MOV     R0,A
044A 54F0              ANL     A,#0F0H
044C C8                XCH     A,R0
044D 68                XRL     A,R0
044E FE                MOV     R6,A
044F A3                INC     DPTR
0450 E0                MOVX    A,@DPTR
0451 C4                SWAP    A
0452 540F              ANL     A,#0FH
0454 48                ORL     A,R0
0455 FF                MOV     R7,A
0456 90000000    R     MOV     DPTR,#j
045A E0                MOVX    A,@DPTR
045B C3                CLR     C
045C 9F                SUBB    A,R7
045D E4                CLR     A
045E 9E                SUBB    A,R6
045F 4003              JC      $ + 5H
0461 010000      R     AJMP    ?C0523
                                           ; SOURCE LINE # 658
0464 7B00        R     MOV     R3,#MBYTE ?SC_1164
0466 7A00        R     MOV     R2,#HIGH ?SC_1164
0468 7900        R     MOV     R1,#LOW ?SC_1164
046A E0                MOVX    A,@DPTR
046B 75F010            MOV     B,#010H
046E A4                MUL     AB
046F FF                MOV     R7,A
0470 90000000    R     MOV     DPTR,#addr+01H
0474 E0                MOVX    A,@DPTR
0475 2F                ADD     A,R7
0476 FE                MOV     R6,A
0477 90000000    R     MOV     DPTR,#addr
047B E0                MOVX    A,@DPTR
047C 35F0              ADDC    A,B
047E 110000      R     ACALL   L?0815
0481 CE                XCH     A,R6
                                           ; SOURCE LINE # 659
0482 110000      R     ACALL   L?0831
0485 F0                MOVX    @DPTR,A
0486         ?C0583:
0486 90000000    R     MOV     DPTR,#j
048A 110000      R     ACALL   L?0793
048D F0                MOVX    @DPTR,A
048E E0                MOVX    A,@DPTR
048F C3                CLR     C
0490 9408              SUBB    A,#08H
0492 40F2              JC      ?C0583
0494         ?C0584:
                                           ; SOURCE LINE # 660
0494 7B00        R     MOV     R3,#MBYTE ?SC_963
0496 7A00        R     MOV     R2,#HIGH ?SC_963
0498 7900        R     MOV     R1,#LOW ?SC_963
049A 110000      E     ACALL   _Printf
                                           ; SOURCE LINE # 661
049D         ?C0586:
C51 COMPILER V9.56.0.0   MONITOR_MCU                                                       07/18/2018 10:44:45 PAGE 72  

049D 90000000    R     MOV     DPTR,#i
04A1 E0                MOVX    A,@DPTR
04A2 C3                CLR     C
04A3 9410              SUBB    A,#010H
04A5 5007              JNC     ?C0582
04A7 A3                INC     DPTR
04A8 110000      R     ACALL   L?0793
04AB F0                MOVX    @DPTR,A
04AC 80EF              SJMP    ?C0586
                                           ; SOURCE LINE # 662
04AE         ?C0582:
04AE 110000      R     ACALL   L?0828
04B1 F0                MOVX    @DPTR,A
04B2 808F              SJMP    ?C0580
                                           ; SOURCE LINE # 664
04B4         ?C0577:
                                           ; SOURCE LINE # 668
04B4 7400        R     MOV     A,#MBYTE ?SC_1179
04B6 110000      R     ACALL   L?0804
04B9 7400        R     MOV     A,#HIGH ?SC_1179
04BB F0                MOVX    @DPTR,A
04BC A3                INC     DPTR
04BD 7400        R     MOV     A,#LOW ?SC_1179
04BF 110000      R     ACALL   L?0788
04C2 110000      E     ACALL   _stricmp
04C5 EF                MOV     A,R7
04C6 4E                ORL     A,R6
04C7 6003              JZ      $ + 5H
04C9 010000      R     AJMP    ?C0590
                                           ; SOURCE LINE # 669
04CC 90000000    E     MOV     DPTR,#argc
04D0 E0                MOVX    A,@DPTR
04D1 FF                MOV     R7,A
04D2 D3                SETB    C
04D3 9402              SUBB    A,#02H
04D5 5003              JNC     $ + 5H
04D7 010000      R     AJMP    ?C0591
                                           ; SOURCE LINE # 671
04DA 90000000    E     MOV     DPTR,#argv+06H
04DE 110000      R     ACALL   L?0789
04E1 110000      E     ACALL   ?C?CLDPTR
04E4 6431              XRL     A,#031H
04E6 703B              JNZ     ?C0592
                                           ; SOURCE LINE # 673
04E8 EF                MOV     A,R7
04E9 D3                SETB    C
04EA 9403              SUBB    A,#03H
04EC 4012              JC      ?C0593
                                           ; SOURCE LINE # 674
04EE 90000000    E     MOV     DPTR,#argv+09H
04F2 110000      R     ACALL   L?0789
04F5 110000      E     ACALL   _a2h
04F8 90000000    R     MOV     DPTR,#mode
04FC EF                MOV     A,R7
04FD F0                MOVX    @DPTR,A
04FE 8007              SJMP    ?C0594
0500         ?C0593:
                                           ; SOURCE LINE # 676
0500 90000000    R     MOV     DPTR,#mode
0504 7401              MOV     A,#01H
0506 F0                MOVX    @DPTR,A
0507         ?C0594:
C51 COMPILER V9.56.0.0   MONITOR_MCU                                                       07/18/2018 10:44:45 PAGE 73  

                                           ; SOURCE LINE # 678
0507 90000000    R     MOV     DPTR,#mode
050B E0                MOVX    A,@DPTR
050C FF                MOV     R7,A
050D 110000      E     ACALL   _EnableWatchdog
                                           ; SOURCE LINE # 679
0510 7B00        R     MOV     R3,#MBYTE ?SC_1183
0512 7A00        R     MOV     R2,#HIGH ?SC_1183
0514 7900        R     MOV     R1,#LOW ?SC_1183
0516 90000000    R     MOV     DPTR,#mode
051A E0                MOVX    A,@DPTR
051B 90000000    E     MOV     DPTR,#?_Printf?BYTE+03H
051F F0                MOVX    @DPTR,A
0520         ?C0775:
                                           ; SOURCE LINE # 680
0520 010000      R     AJMP    ?C0785
0523         ?C0592:
                                           ; SOURCE LINE # 682
0523 90000000    E     MOV     DPTR,#argv+06H
0527 110000      R     ACALL   L?0789
052A 110000      E     ACALL   ?C?CLDPTR
052D 6432              XRL     A,#032H
052F 7047              JNZ     ?C0596
                                           ; SOURCE LINE # 683
0531 7B00        R     MOV     R3,#MBYTE ?SC_1221
0533 7A00        R     MOV     R2,#HIGH ?SC_1221
0535 7900        R     MOV     R1,#LOW ?SC_1221
0537 110000      E     ACALL   _Puts
                                           ; SOURCE LINE # 684
053A 110000      E     ACALL   RestartWatchdog
                                           ; SOURCE LINE # 685
053D 7B00        R     MOV     R3,#MBYTE ?SC_1239
053F 7A00        R     MOV     R2,#HIGH ?SC_1239
0541 7900        R     MOV     R1,#LOW ?SC_1239
0543 110000      E     ACALL   _Puts
                                           ; SOURCE LINE # 688
0546 7DB0              MOV     R5,#0B0H
0548 110000      R     ACALL   L?0801
                                           ; SOURCE LINE # 689
054B 7DB1              MOV     R5,#0B1H
054D 110000      R     ACALL   L?0801
                                           ; SOURCE LINE # 690
0550 7DB2              MOV     R5,#0B2H
0552 110000      R     ACALL   L?0808
                                           ; SOURCE LINE # 691
0555 7DB3              MOV     R5,#0B3H
0557 110000      R     ACALL   L?0808
                                           ; SOURCE LINE # 692
055A 7DB4              MOV     R5,#0B4H
055C 110000      R     ACALL   L?0820
                                           ; SOURCE LINE # 693
055F 7DB5              MOV     R5,#0B5H
0561 110000      R     ACALL   L?0820
                                           ; SOURCE LINE # 694
0564 7DB6              MOV     R5,#0B6H
0566 7C02              MOV     R4,#02H
0568 7F01              MOV     R7,#01H
056A 7E00              MOV     R6,#00H
056C 110000      E     ACALL   _delay1s
                                           ; SOURCE LINE # 696
056F 7B00        R     MOV     R3,#MBYTE ?SC_1249
0571 7A00        R     MOV     R2,#HIGH ?SC_1249
C51 COMPILER V9.56.0.0   MONITOR_MCU                                                       07/18/2018 10:44:45 PAGE 74  

0573 7900        R     MOV     R1,#LOW ?SC_1249
                                           ; SOURCE LINE # 697
0575 010000      R     AJMP    ?C0784
0578         ?C0596:
                                           ; SOURCE LINE # 698
0578 90000000    E     MOV     DPTR,#argv+06H
057C 110000      R     ACALL   L?0789
057F 110000      E     ACALL   ?C?CLDPTR
0582 6433              XRL     A,#033H
0584 702F              JNZ     ?C0598
                                           ; SOURCE LINE # 701
0586 7B00        R     MOV     R3,#MBYTE ?SC_1256
0588 7A00        R     MOV     R2,#HIGH ?SC_1256
058A 7900        R     MOV     R1,#LOW ?SC_1256
058C 110000      E     ACALL   _Puts
                                           ; SOURCE LINE # 703
058F 110000      E     ACALL   RestartWatchdog
                                           ; SOURCE LINE # 704
0592 7B00        R     MOV     R3,#MBYTE ?SC_1275
0594 7A00        R     MOV     R2,#HIGH ?SC_1275
0596 7900        R     MOV     R1,#LOW ?SC_1275
0598 110000      E     ACALL   _Puts
                                           ; SOURCE LINE # 705
                                           ; SOURCE LINE # 706
                                           ; SOURCE LINE # 707
059B 110000      R     ACALL   L?0805
059E         ?C0599:
                                           ; SOURCE LINE # 710
                                           ; SOURCE LINE # 711
                                           ; SOURCE LINE # 712
                                           ; SOURCE LINE # 713
                                           ; SOURCE LINE # 714
                                           ; SOURCE LINE # 716
059E 110000      R     ACALL   L?0790
05A1 110000      R     ACALL   L?0802
05A4 7B00        R     MOV     R3,#MBYTE ?SC_1286
05A6 7A00        R     MOV     R2,#HIGH ?SC_1286
05A8 7900        R     MOV     R1,#LOW ?SC_1286
05AA 110000      E     ACALL   _Printf
                                           ; SOURCE LINE # 717
05AD 110000      R     ACALL   L?0832
                                           ; SOURCE LINE # 718
05B0 110000      R     ACALL   L?0832
                                           ; SOURCE LINE # 719
05B3 80E9              SJMP    ?C0599
                                           ; SOURCE LINE # 721
                                           ; SOURCE LINE # 722
05B5         ?C0598:
                                           ; SOURCE LINE # 724
                                           ; SOURCE LINE # 725
05B5 110000      E     ACALL   DisableWatchdog
                                           ; SOURCE LINE # 726
05B8 7B00        R     MOV     R3,#MBYTE ?SC_1307
05BA 7A00        R     MOV     R2,#HIGH ?SC_1307
05BC 7900        R     MOV     R1,#LOW ?SC_1307
05BE         ?C0776:
                                           ; SOURCE LINE # 727
                                           ; SOURCE LINE # 728
05BE 010000      R     AJMP    ?C0785
05C1         ?C0591:
                                           ; SOURCE LINE # 729
                                           ; SOURCE LINE # 730
C51 COMPILER V9.56.0.0   MONITOR_MCU                                                       07/18/2018 10:44:45 PAGE 75  

05C1 7B00        R     MOV     R3,#MBYTE ?SC_1337
05C3 7A00        R     MOV     R2,#HIGH ?SC_1337
05C5 7900        R     MOV     R1,#LOW ?SC_1337
05C7 110000      E     ACALL   _Puts
                                           ; SOURCE LINE # 731
05CA E5D8              MOV     A,SFR_WDCON
05CC 30E109            JNB     ACC.1,?C0603
05CF 7B00        R     MOV     R3,#MBYTE ?SC_1349
05D1 7A00        R     MOV     R2,#HIGH ?SC_1349
05D3 7900        R     MOV     R1,#LOW ?SC_1349
05D5         ?C0777:
05D5 010000      R     AJMP    ?C0784
05D8         ?C0603:
                                           ; SOURCE LINE # 732
05D8 7B00        R     MOV     R3,#MBYTE ?SC_1352
05DA 7A00        R     MOV     R2,#HIGH ?SC_1352
05DC 7900        R     MOV     R1,#LOW ?SC_1352
05DE         ?C0779:
                                           ; SOURCE LINE # 736
                                           ; SOURCE LINE # 738
05DE 010000      R     AJMP    ?C0784
05E1         ?C0590:
                                           ; SOURCE LINE # 740
05E1 7400        R     MOV     A,#MBYTE ?SC_1356
05E3 110000      R     ACALL   L?0804
05E6 7400        R     MOV     A,#HIGH ?SC_1356
05E8 F0                MOVX    @DPTR,A
05E9 A3                INC     DPTR
05EA 7400        R     MOV     A,#LOW ?SC_1356
05EC 110000      R     ACALL   L?0788
05EF 110000      E     ACALL   _stricmp
05F2 EF                MOV     A,R7
05F3 4E                ORL     A,R6
05F4 6003              JZ      $ + 5H
05F6 010000      R     AJMP    ?C0606
                                           ; SOURCE LINE # 741
05F9 90000000    E     MOV     DPTR,#argv+06H
05FD 110000      R     ACALL   L?0789
0600 110000      E     ACALL   ?C?CLDPTR
0603 6431              XRL     A,#031H
0605 7022              JNZ     ?C0607
                                           ; SOURCE LINE # 743
0607 110000      R     ACALL   L?0797
                                           ; SOURCE LINE # 744
060A 110000      R     ACALL   L?0826
                                           ; SOURCE LINE # 745
060D 110000      R     ACALL   L?0797
0610 F583              MOV     DPH,A
0612 759300      E     MOV     DPX,#?C?XDATASEG
0615 7401              MOV     A,#01H
0617 F0                MOVX    @DPTR,A
                                           ; SOURCE LINE # 746
                                           ; SOURCE LINE # 747
0618 110000      R     ACALL   L?0796
061B F583              MOV     DPH,A
061D 759300      E     MOV     DPX,#?C?XDATASEG
0620 E0                MOVX    A,@DPTR
0621 90000000    E     MOV     DPTR,#?_Printf?BYTE+03H
0625 F0                MOVX    @DPTR,A
0626         ?C0778:
                                           ; SOURCE LINE # 748
0626 010000      R     AJMP    ?C0785
C51 COMPILER V9.56.0.0   MONITOR_MCU                                                       07/18/2018 10:44:45 PAGE 76  

0629         ?C0607:
                                           ; SOURCE LINE # 749
0629 90000000    E     MOV     DPTR,#argv+06H
062D 110000      R     ACALL   L?0789
0630 110000      E     ACALL   ?C?CLDPTR
0633 6432              XRL     A,#032H
0635 7026              JNZ     ?C0609
                                           ; SOURCE LINE # 753
                                           ; SOURCE LINE # 754
                                           ; SOURCE LINE # 755
0637 110000      R     ACALL   L?0805
                                           ; SOURCE LINE # 758
063A 438701            ORL     SFR_PCON,#01H
                                           ; SOURCE LINE # 759
063D 7FF4              MOV     R7,#0F4H
063F 7E01              MOV     R6,#01H
0641 110000      E     ACALL   _delay1ms
                                           ; SOURCE LINE # 760
0644 7FF4              MOV     R7,#0F4H
0646 7E01              MOV     R6,#01H
0648 110000      E     ACALL   _delay1ms
                                           ; SOURCE LINE # 761
064B 5387FE            ANL     SFR_PCON,#0FEH
                                           ; SOURCE LINE # 763
                                           ; SOURCE LINE # 764
                                           ; SOURCE LINE # 765
                                           ; SOURCE LINE # 766
                                           ; SOURCE LINE # 769
064E 110000      R     ACALL   L?0790
0651 110000      R     ACALL   L?0803
0654 7B00        R     MOV     R3,#MBYTE ?SC_1286
0656 7A00        R     MOV     R2,#HIGH ?SC_1286
0658 7900        R     MOV     R1,#LOW ?SC_1286
065A         ?C0781:
                                           ; SOURCE LINE # 770
065A 010000      R     AJMP    ?C0785
065D         ?C0609:
                                           ; SOURCE LINE # 771
065D 90000000    E     MOV     DPTR,#argv+06H
0661 110000      R     ACALL   L?0789
0664 110000      E     ACALL   ?C?CLDPTR
0667 6433              XRL     A,#033H
0669 6003              JZ      $ + 5H
066B 010000      R     AJMP    ?C0523
                                           ; SOURCE LINE # 773
066E 110000      R     ACALL   L?0797
                                           ; SOURCE LINE # 774
0671 110000      R     ACALL   L?0826
                                           ; SOURCE LINE # 775
                                           ; SOURCE LINE # 776
0674 110000      R     ACALL   L?0796
0677 F583              MOV     DPH,A
0679 759300      E     MOV     DPX,#?C?XDATASEG
067C E0                MOVX    A,@DPTR
067D 90000000    E     MOV     DPTR,#?_Printf?BYTE+03H
0681 F0                MOVX    @DPTR,A
0682         ?C0782:
                                           ; SOURCE LINE # 777
                                           ; SOURCE LINE # 778
0682 010000      R     AJMP    ?C0785
0685         ?C0606:
                                           ; SOURCE LINE # 780
C51 COMPILER V9.56.0.0   MONITOR_MCU                                                       07/18/2018 10:44:45 PAGE 77  

0685 7400        R     MOV     A,#MBYTE ?SC_1371
0687 110000      R     ACALL   L?0807
068A 7400        R     MOV     A,#HIGH ?SC_1371
068C F0                MOVX    @DPTR,A
068D A3                INC     DPTR
068E 7400        R     MOV     A,#LOW ?SC_1371
0690 110000      R     ACALL   L?0788
0693 110000      E     ACALL   _stricmp
0696 EF                MOV     A,R7
0697 4E                ORL     A,R6
0698 7056              JNZ     ?C0613
                                           ; SOURCE LINE # 781
069A 110000      R     ACALL   L?0810
069D 9403              SUBB    A,#03H
069F 5009              JNC     ?C0614
                                           ; SOURCE LINE # 782
06A1 7B00        R     MOV     R3,#MBYTE ?SC_1374
06A3 7A00        R     MOV     R2,#HIGH ?SC_1374
06A5 7900        R     MOV     R1,#LOW ?SC_1374
06A7         ?C0780:
06A7 010000      R     AJMP    ?C0784
                                           ; SOURCE LINE # 784
06AA         ?C0614:
                                           ; SOURCE LINE # 785
06AA 90000000    E     MOV     DPTR,#argv+06H
06AE 110000      R     ACALL   L?0789
06B1 110000      E     ACALL   _a2h
06B4 90000000    R     MOV     DPTR,#argv_num1
06B8 EF                MOV     A,R7
06B9 F0                MOVX    @DPTR,A
                                           ; SOURCE LINE # 787
06BA 90000000    E     MOV     DPTR,#argv+09H
06BE 110000      R     ACALL   L?0789
06C1 110000      E     ACALL   ?C?CLDPTR
06C4 90000000    R     MOV     DPTR,#argv_num1
06C8 B4310D            CJNE    A,#031H,?C0615
                                           ; SOURCE LINE # 788
06CB E0                MOVX    A,@DPTR
06CC FF                MOV     R7,A
06CD 110000      E     ACALL   _EnableExtInterrupt
                                           ; SOURCE LINE # 789
06D0 7B00        R     MOV     R3,#MBYTE ?SC_1420
06D2 7A00        R     MOV     R2,#HIGH ?SC_1420
06D4 7900        R     MOV     R1,#LOW ?SC_1420
                                           ; SOURCE LINE # 790
06D6 800B              SJMP    ?C0763
06D8         ?C0615:
                                           ; SOURCE LINE # 791
                                           ; SOURCE LINE # 792
06D8 E0                MOVX    A,@DPTR
06D9 FF                MOV     R7,A
06DA 110000      E     ACALL   _DisableExtInterrupt
                                           ; SOURCE LINE # 793
06DD 7B00        R     MOV     R3,#MBYTE ?SC_1448
06DF 7A00        R     MOV     R2,#HIGH ?SC_1448
06E1 7900        R     MOV     R1,#LOW ?SC_1448
06E3         ?C0763:
06E3 90000000    R     MOV     DPTR,#argv_num1
06E7 E0                MOVX    A,@DPTR
06E8 90000000    E     MOV     DPTR,#?_Printf?BYTE+03H
06EC F0                MOVX    @DPTR,A
06ED         ?C0783:
C51 COMPILER V9.56.0.0   MONITOR_MCU                                                       07/18/2018 10:44:45 PAGE 78  

                                           ; SOURCE LINE # 794
                                           ; SOURCE LINE # 795
06ED 010000      R     AJMP    ?C0785
06F0         ?C0613:
                                           ; SOURCE LINE # 797
06F0 7400        R     MOV     A,#MBYTE ?SC_1477
06F2 110000      R     ACALL   L?0807
06F5 7400        R     MOV     A,#HIGH ?SC_1477
06F7 F0                MOVX    @DPTR,A
06F8 A3                INC     DPTR
06F9 7400        R     MOV     A,#LOW ?SC_1477
06FB 110000      R     ACALL   L?0788
06FE 110000      E     ACALL   _stricmp
0701 EF                MOV     A,R7
0702 4E                ORL     A,R6
0703 700E              JNZ     ?C0618
                                           ; SOURCE LINE # 798
0705 7B00        R     MOV     R3,#MBYTE ?SC_1480
0707 7A00        R     MOV     R2,#HIGH ?SC_1480
0709 7900        R     MOV     R1,#LOW ?SC_1480
070B 110000      E     ACALL   _Printf
                                           ; SOURCE LINE # 799
070E C28B              CLR     SFRB_IE1
                                           ; SOURCE LINE # 800
0710 D2AA              SETB    SFRB_EX1
                                           ; SOURCE LINE # 801
0712 22                RET     
0713         ?C0618:
                                           ; SOURCE LINE # 803
0713 7400        R     MOV     A,#MBYTE ?SC_1506
0715 110000      R     ACALL   L?0811
0718 7400        R     MOV     A,#HIGH ?SC_1506
071A F0                MOVX    @DPTR,A
071B A3                INC     DPTR
071C 7400        R     MOV     A,#LOW ?SC_1506
071E 110000      R     ACALL   L?0788
0721 110000      E     ACALL   _stricmp
0724 EF                MOV     A,R7
0725 4E                ORL     A,R6
0726 7046              JNZ     ?C0620
                                           ; SOURCE LINE # 805
0728 110000      R     ACALL   L?0810
072B 9403              SUBB    A,#03H
072D 502C              JNC     ?C0621
                                           ; SOURCE LINE # 806
072F 7B00        R     MOV     R3,#MBYTE ?SC_1509
0731 7A00        R     MOV     R2,#HIGH ?SC_1509
0733 7900        R     MOV     R1,#LOW ?SC_1509
0735 90000000    E     MOV     DPTR,#?_Printf?BYTE+03H
0739 E500        E     MOV     A,EXINT_STATUS
073B F0                MOVX    @DPTR,A
073C 90000000    E     MOV     DPTR,#ExtIntCount
0740 110000      R     ACALL   L?0792
0743 E0                MOVX    A,@DPTR
0744 FF                MOV     R7,A
0745 90000000    E     MOV     DPTR,#?_Printf?BYTE+04H
0749 110000      E     ACALL   ?C?LSTXDATA
074C 110000      E     ACALL   _Printf
                                           ; SOURCE LINE # 807
074F E4                CLR     A
0750 FF                MOV     R7,A
0751 FE                MOV     R6,A
C51 COMPILER V9.56.0.0   MONITOR_MCU                                                       07/18/2018 10:44:45 PAGE 79  

0752 FD                MOV     R5,A
0753 FC                MOV     R4,A
0754 90000000    E     MOV     DPTR,#ExtIntCount
0758 010000      E     AJMP    ?C?LSTXDATA
                                           ; SOURCE LINE # 813
075B         ?C0621:
                                           ; SOURCE LINE # 814
075B 90000000    E     MOV     DPTR,#argv+06H
075F 110000      R     ACALL   L?0789
0762 110000      E     ACALL   _a2h
0765 90000000    R     MOV     DPTR,#argv_num1
0769 EF                MOV     A,R7
076A F0                MOVX    @DPTR,A
                                           ; SOURCE LINE # 816
076B 5200        E     ANL     EXINT_STATUS,A
                                           ; SOURCE LINE # 818
076D 22                RET     
076E         ?C0620:
                                           ; SOURCE LINE # 858
076E 7400        R     MOV     A,#MBYTE ?SC_1558
0770 110000      R     ACALL   L?0811
0773 7400        R     MOV     A,#HIGH ?SC_1558
0775 F0                MOVX    @DPTR,A
0776 A3                INC     DPTR
0777 7400        R     MOV     A,#LOW ?SC_1558
0779 110000      R     ACALL   L?0788
077C 110000      E     ACALL   _stricmp
077F EF                MOV     A,R7
0780 4E                ORL     A,R6
0781 6003              JZ      $ + 5H
0783 010000      R     AJMP    ?C0623
                                           ; SOURCE LINE # 859
0786 7B00        R     MOV     R3,#MBYTE ?SC_1562
0788 7A00        R     MOV     R2,#HIGH ?SC_1562
078A 7900        R     MOV     R1,#LOW ?SC_1562
078C 110000      E     ACALL   _Puts
                                           ; SOURCE LINE # 860
078F 7B00        R     MOV     R3,#MBYTE ?SC_1609
0791 7A00        R     MOV     R2,#HIGH ?SC_1609
0793 7900        R     MOV     R1,#LOW ?SC_1609
0795 110000      E     ACALL   _Puts
                                           ; SOURCE LINE # 861
0798 7B00        R     MOV     R3,#MBYTE ?SC_1646
079A 7A00        R     MOV     R2,#HIGH ?SC_1646
079C 7900        R     MOV     R1,#LOW ?SC_1646
079E 110000      E     ACALL   _Puts
                                           ; SOURCE LINE # 862
07A1 7B00        R     MOV     R3,#MBYTE ?SC_1683
07A3 7A00        R     MOV     R2,#HIGH ?SC_1683
07A5 7900        R     MOV     R1,#LOW ?SC_1683
07A7 110000      E     ACALL   _Puts
                                           ; SOURCE LINE # 863
07AA 7B00        R     MOV     R3,#MBYTE ?SC_1720
07AC 7A00        R     MOV     R2,#HIGH ?SC_1720
07AE 7900        R     MOV     R1,#LOW ?SC_1720
07B0 110000      E     ACALL   _Puts
                                           ; SOURCE LINE # 864
07B3 7B00        R     MOV     R3,#MBYTE ?SC_1757
07B5 7A00        R     MOV     R2,#HIGH ?SC_1757
07B7 7900        R     MOV     R1,#LOW ?SC_1757
07B9 110000      E     ACALL   _Puts
                                           ; SOURCE LINE # 865
C51 COMPILER V9.56.0.0   MONITOR_MCU                                                       07/18/2018 10:44:45 PAGE 80  

07BC 7B00        R     MOV     R3,#MBYTE ?SC_1794
07BE 7A00        R     MOV     R2,#HIGH ?SC_1794
07C0 7900        R     MOV     R1,#LOW ?SC_1794
07C2 110000      E     ACALL   _Puts
                                           ; SOURCE LINE # 866
07C5 7B00        R     MOV     R3,#MBYTE ?SC_1831
07C7 7A00        R     MOV     R2,#HIGH ?SC_1831
07C9 7900        R     MOV     R1,#LOW ?SC_1831
07CB 110000      E     ACALL   _Puts
                                           ; SOURCE LINE # 867
07CE 7B00        R     MOV     R3,#MBYTE ?SC_1868
07D0 7A00        R     MOV     R2,#HIGH ?SC_1868
07D2 7900        R     MOV     R1,#LOW ?SC_1868
07D4 110000      E     ACALL   _Puts
                                           ; SOURCE LINE # 868
07D7 7B00        R     MOV     R3,#MBYTE ?SC_1905
07D9 7A00        R     MOV     R2,#HIGH ?SC_1905
07DB 7900        R     MOV     R1,#LOW ?SC_1905
07DD 110000      E     ACALL   _Puts
                                           ; SOURCE LINE # 869
07E0 7B00        R     MOV     R3,#MBYTE ?SC_1942
07E2 7A00        R     MOV     R2,#HIGH ?SC_1942
07E4 7900        R     MOV     R1,#LOW ?SC_1942
07E6 110000      E     ACALL   _Puts
                                           ; SOURCE LINE # 870
07E9 7B00        R     MOV     R3,#MBYTE ?SC_1979
07EB 7A00        R     MOV     R2,#HIGH ?SC_1979
07ED 7900        R     MOV     R1,#LOW ?SC_1979
07EF 110000      E     ACALL   _Puts
                                           ; SOURCE LINE # 871
07F2 7B00        R     MOV     R3,#MBYTE ?SC_2016
07F4 7A00        R     MOV     R2,#HIGH ?SC_2016
07F6 7900        R     MOV     R1,#LOW ?SC_2016
07F8 110000      E     ACALL   _Puts
                                           ; SOURCE LINE # 872
07FB 7B00        R     MOV     R3,#MBYTE ?SC_2053
07FD 7A00        R     MOV     R2,#HIGH ?SC_2053
07FF 7900        R     MOV     R1,#LOW ?SC_2053
0801 110000      E     ACALL   _Puts
                                           ; SOURCE LINE # 873
0804 7B00        R     MOV     R3,#MBYTE ?SC_2090
0806 7A00        R     MOV     R2,#HIGH ?SC_2090
0808 7900        R     MOV     R1,#LOW ?SC_2090
080A 110000      E     ACALL   _Puts
                                           ; SOURCE LINE # 874
080D 7B00        R     MOV     R3,#MBYTE ?SC_2134
080F 7A00        R     MOV     R2,#HIGH ?SC_2134
0811 7900        R     MOV     R1,#LOW ?SC_2134
0813 110000      E     ACALL   _Puts
                                           ; SOURCE LINE # 875
0816 7B00        R     MOV     R3,#MBYTE ?SC_2178
0818 7A00        R     MOV     R2,#HIGH ?SC_2178
081A 7900        R     MOV     R1,#LOW ?SC_2178
081C 110000      E     ACALL   _Puts
                                           ; SOURCE LINE # 876
081F 7B00        R     MOV     R3,#MBYTE ?SC_2222
0821 7A00        R     MOV     R2,#HIGH ?SC_2222
0823 7900        R     MOV     R1,#LOW ?SC_2222
0825 110000      E     ACALL   _Puts
                                           ; SOURCE LINE # 877
0828 7B00        R     MOV     R3,#MBYTE ?SC_2266
082A 7A00        R     MOV     R2,#HIGH ?SC_2266
C51 COMPILER V9.56.0.0   MONITOR_MCU                                                       07/18/2018 10:44:45 PAGE 81  

082C 7900        R     MOV     R1,#LOW ?SC_2266
082E 110000      E     ACALL   _Puts
                                           ; SOURCE LINE # 878
0831 7B00        R     MOV     R3,#MBYTE ?SC_2310
0833 7A00        R     MOV     R2,#HIGH ?SC_2310
0835 7900        R     MOV     R1,#LOW ?SC_2310
0837 110000      E     ACALL   _Puts
                                           ; SOURCE LINE # 879
083A 7B00        R     MOV     R3,#MBYTE ?SC_2354
083C 7A00        R     MOV     R2,#HIGH ?SC_2354
083E 7900        R     MOV     R1,#LOW ?SC_2354
0840 110000      E     ACALL   _Puts
                                           ; SOURCE LINE # 880
0843 7B00        R     MOV     R3,#MBYTE ?SC_2398
0845 7A00        R     MOV     R2,#HIGH ?SC_2398
0847 7900        R     MOV     R1,#LOW ?SC_2398
0849         ?C0784:
0849 010000      E     AJMP    _Puts
                                           ; SOURCE LINE # 886
084C         ?C0623:
                                           ; SOURCE LINE # 888
084C 7400        R     MOV     A,#MBYTE ?SC_2442
084E 110000      R     ACALL   L?0819
0851 7400        R     MOV     A,#HIGH ?SC_2442
0853 F0                MOVX    @DPTR,A
0854 A3                INC     DPTR
0855 7400        R     MOV     A,#LOW ?SC_2442
0857 110000      R     ACALL   L?0788
085A 110000      E     ACALL   _stricmp
085D EF                MOV     A,R7
085E 4E                ORL     A,R6
085F 7020              JNZ     ?C0625
                                           ; SOURCE LINE # 889
0861 7B00        R     MOV     R3,#MBYTE ?SC_2447
0863 7A00        R     MOV     R2,#HIGH ?SC_2447
0865 7900        R     MOV     R1,#LOW ?SC_2447
0867 110000      E     ACALL   _Printf
                                           ; SOURCE LINE # 890
086A 7B00        R     MOV     R3,#MBYTE ?SC_2464
086C 7A00        R     MOV     R2,#HIGH ?SC_2464
086E 7900        R     MOV     R1,#LOW ?SC_2464
0870 110000      E     ACALL   _Printf
                                           ; SOURCE LINE # 891
0873 438712            ORL     SFR_PCON,#012H
                                           ; SOURCE LINE # 893
0876 00                NOP     
                                           ; SOURCE LINE # 894
0877 00                NOP     
                                           ; SOURCE LINE # 895
0878 00                NOP     
                                           ; SOURCE LINE # 896
0879 00                NOP     
                                           ; SOURCE LINE # 897
087A 00                NOP     
                                           ; SOURCE LINE # 898
087B 00                NOP     
                                           ; SOURCE LINE # 899
087C 00                NOP     
                                           ; SOURCE LINE # 900
087D 00                NOP     
                                           ; SOURCE LINE # 901
087E 00                NOP     
C51 COMPILER V9.56.0.0   MONITOR_MCU                                                       07/18/2018 10:44:45 PAGE 82  

                                           ; SOURCE LINE # 902
087F 00                NOP     
                                           ; SOURCE LINE # 903
0880 22                RET     
0881         ?C0625:
                                           ; SOURCE LINE # 905
0881 7400        R     MOV     A,#MBYTE ?SC_2502
0883 110000      R     ACALL   L?0819
0886 7400        R     MOV     A,#HIGH ?SC_2502
0888 F0                MOVX    @DPTR,A
0889 A3                INC     DPTR
088A 7400        R     MOV     A,#LOW ?SC_2502
088C 110000      R     ACALL   L?0788
088F 110000      E     ACALL   _stricmp
0892 EF                MOV     A,R7
0893 4E                ORL     A,R6
0894 7003              JNZ     ?C0627
                                           ; SOURCE LINE # 906
0896 010000      R     AJMP    MCU_OFF_function
                                           ; SOURCE LINE # 907
0899         ?C0627:
                                           ; SOURCE LINE # 909
0899 7400        R     MOV     A,#MBYTE ?SC_2506
089B 110000      R     ACALL   L?0829
089E 7400        R     MOV     A,#HIGH ?SC_2506
08A0 F0                MOVX    @DPTR,A
08A1 A3                INC     DPTR
08A2 7400        R     MOV     A,#LOW ?SC_2506
08A4 110000      R     ACALL   L?0788
08A7 110000      E     ACALL   _stricmp
08AA EF                MOV     A,R7
08AB 4E                ORL     A,R6
08AC 602D              JZ      ?C0630
08AE 7400        R     MOV     A,#MBYTE ?SC_2508
08B0 110000      R     ACALL   L?0829
08B3 7400        R     MOV     A,#HIGH ?SC_2508
08B5 F0                MOVX    @DPTR,A
08B6 A3                INC     DPTR
08B7 7400        R     MOV     A,#LOW ?SC_2508
08B9 110000      R     ACALL   L?0788
08BC 110000      E     ACALL   _stricmp
08BF EF                MOV     A,R7
08C0 4E                ORL     A,R6
08C1 6018              JZ      ?C0630
08C3 90000000    E     MOV     DPTR,#?_stricmp?BYTE+03H
08C7 7400        R     MOV     A,#MBYTE ?SC_2513
08C9 F0                MOVX    @DPTR,A
08CA A3                INC     DPTR
08CB 7400        R     MOV     A,#HIGH ?SC_2513
08CD F0                MOVX    @DPTR,A
08CE A3                INC     DPTR
08CF 7400        R     MOV     A,#LOW ?SC_2513
08D1 110000      R     ACALL   L?0788
08D4 110000      E     ACALL   _stricmp
08D7 EF                MOV     A,R7
08D8 4E                ORL     A,R6
08D9 7003              JNZ     ?C0629
08DB         ?C0630:
                                           ; SOURCE LINE # 910
08DB 010000      R     AJMP    MCUHelp
                                           ; SOURCE LINE # 911
08DE         ?C0629:
C51 COMPILER V9.56.0.0   MONITOR_MCU                                                       07/18/2018 10:44:45 PAGE 83  

                                           ; SOURCE LINE # 914
08DE 7B00        R     MOV     R3,#MBYTE ?SC_2515
08E0 7A00        R     MOV     R2,#HIGH ?SC_2515
08E2 7900        R     MOV     R1,#LOW ?SC_2515
08E4         ?C0785:
08E4 110000      E     ACALL   _Printf
                                           ; SOURCE LINE # 917
08E7         ?C0523:
08E7 22                RET     
08E8         L?0793:
08E8 7B00        R     MOV     R3,#MBYTE ?SC_956
08EA 7A00        R     MOV     R2,#HIGH ?SC_956
08EC 7900        R     MOV     R1,#LOW ?SC_956
08EE E0                MOVX    A,@DPTR
08EF 75F010            MOV     B,#010H
08F2 A4                MUL     AB
08F3 FF                MOV     R7,A
08F4 90000000    R     MOV     DPTR,#addr+01H
08F8 E0                MOVX    A,@DPTR
08F9 2F                ADD     A,R7
08FA FF                MOV     R7,A
08FB 90000000    R     MOV     DPTR,#addr
08FF E0                MOVX    A,@DPTR
0900 35F0              ADDC    A,B
0902 FE                MOV     R6,A
0903 90000000    R     MOV     DPTR,#i
0907 E0                MOVX    A,@DPTR
0908 7C00              MOV     R4,#00H
090A 2F                ADD     A,R7
090B FF                MOV     R7,A
090C EC                MOV     A,R4
090D 3E                ADDC    A,R6
090E 8F82              MOV     DPL,R7
0910 F583              MOV     DPH,A
0912 759300      E     MOV     DPX,#?C?XDATASEG
0915 E0                MOVX    A,@DPTR
0916 90000000    E     MOV     DPTR,#?_Printf?BYTE+03H
091A F0                MOVX    @DPTR,A
091B 110000      E     ACALL   _Printf
091E 90000000    R     MOV     DPTR,#i
0922 E0                MOVX    A,@DPTR
0923 04                INC     A
0924 22                RET     
0925         L?0800:
0925 A3                INC     DPTR
0926 E0                MOVX    A,@DPTR
0927 C4                SWAP    A
0928 54F0              ANL     A,#0F0H
092A FE                MOV     R6,A
092B EF                MOV     A,R7
092C 2E                ADD     A,R6
092D FF                MOV     R7,A
092E 110000      R     ACALL   _ReadSFR
0931 90000000    E     MOV     DPTR,#?_Printf?BYTE+03H
0935 EF                MOV     A,R7
0936 F0                MOVX    @DPTR,A
0937 7B00        R     MOV     R3,#MBYTE ?SC_956
0939 7A00        R     MOV     R2,#HIGH ?SC_956
093B 7900        R     MOV     R1,#LOW ?SC_956
093D 110000      E     ACALL   _Printf
0940 90000000    R     MOV     DPTR,#i
0944 E0                MOVX    A,@DPTR
C51 COMPILER V9.56.0.0   MONITOR_MCU                                                       07/18/2018 10:44:45 PAGE 84  

0945 04                INC     A
0946 22                RET     
0947         L?0801:
0947 7C02              MOV     R4,#02H
0949 7F01              MOV     R7,#01H
094B 7E00              MOV     R6,#00H
094D 110000      E     ACALL   _delay1s
0950 22                RET     
0951         L?0808:
0951 7C02              MOV     R4,#02H
0953 7F01              MOV     R7,#01H
0955 7E00              MOV     R6,#00H
0957 110000      E     ACALL   _delay1s
095A 22                RET     
095B         L?0812:
095B F0                MOVX    @DPTR,A
095C 110000      E     ACALL   _Printf
095F E4                CLR     A
0960 90000000    R     MOV     DPTR,#i
0964 22                RET     
0965         L?0813:
0965 110000      E     ACALL   _a2h
0968 90000000    R     MOV     DPTR,#addr
096C EE                MOV     A,R6
096D F0                MOVX    @DPTR,A
096E A3                INC     DPTR
096F EF                MOV     A,R7
0970 22                RET     
0971         L?0816:
0971 110000      E     ACALL   _a2h
0974 90000000    R     MOV     DPTR,#argv_num1
0978 EF                MOV     A,R7
0979 22                RET     
097A         L?0820:
097A 7C02              MOV     R4,#02H
097C 7F01              MOV     R7,#01H
097E 7E00              MOV     R6,#00H
0980 110000      E     ACALL   _delay1s
0983 22                RET     
0984         L?0831:
0984 F0                MOVX    @DPTR,A
0985 110000      E     ACALL   _Printf
0988 E4                CLR     A
0989 90000000    R     MOV     DPTR,#i
098D 22                RET     
098E         L?0832:
098E 7B00        R     MOV     R3,#MBYTE ?SC_1301
0990 7A00        R     MOV     R2,#HIGH ?SC_1301
0992 7900        R     MOV     R1,#LOW ?SC_1301
0994 110000      E     ACALL   _Puts
0997 22                RET     
             ; FUNCTION MonitorMCU (END)



MODULE INFORMATION:   STATIC OVERLAYABLE
   CODE SIZE        =   5616    ----
   CONSTANT SIZE    =   2970    ----
   XDATA SIZE       =   ----      14
   PDATA SIZE       =   ----    ----
   DATA SIZE        =   ----    ----
   IDATA SIZE       =   ----    ----
C51 COMPILER V9.56.0.0   MONITOR_MCU                                                       07/18/2018 10:44:45 PAGE 85  

   BIT SIZE         =   ----    ----
   EDATA SIZE       =   ----    ----
   HDATA SIZE       =   ----    ----
   XDATA CONST SIZE =   ----    ----
   FAR CONST SIZE   =   ----    ----
END OF MODULE INFORMATION.


C51 COMPILATION COMPLETE.  1 WARNING(S),  0 ERROR(S)
